ccollections
defaultdict
p0
(cdill._dill
_load_type
p1
(S'ListType'
p2
tp3
Rp4
tp5
Rp6
S'T303 E0 00I'
p7
(lp8
V303e-I
p9
asS'T412 00R'
p10
(lp11
V412-R
p12
asS'T407 00R'
p13
(lp14
V407-R
p15
asS'T378 00R'
p16
(lp17
VI08-R
p18
asS'L4V-R'
p19
(lp20
VL4V-R
p21
asS'B03 00I'
p22
(lp23
VB03-I
p24
asS'L4V-I'
p25
(lp26
VL4V-I
p27
asS'B03 00R'
p28
(lp29
VB03-R
p30
asS'T412 00I'
p31
(lp32
V412-I
p33
asS'T303 E0 00R'
p34
(lp35
V303e-R
p36
asS'T407 00I'
p37
(lp38
V407-I
p39
asS'T535 C0 00I'
p40
(lp41
VJ15c-I
p42
asS'B66 00I'
p43
(lp44
VC16-I
p45
asS'B56 01R'
p46
(lp47
VC06-R
p48
asS'T105 00R'
p49
(lp50
V105-R
p51
asS'T114 00R'
p52
(lp53
V114-R
p54
asS'T128 00R'
p55
(lp56
V408-R
p57
asS'T105 00I'
p58
(lp59
V105-I
p60
asS'B66 00R'
p61
(lp62
VC16-R
p63
asS'T128 00I'
p64
(lp65
V408-I
p66
asS'T114 00I'
p67
(lp68
V114-I
p69
asS'B72 00I'
p70
(lp71
VC22-I
p72
asS'T343 01R'
p73
(lp74
VH13-R
p75
asS'T514 00I'
p76
(lp77
V514-I
p78
asS'T235 00R'
p79
(lp80
VG05-R
p81
asS'F12 00I'
p82
(lp83
VF12-I
p84
asS'T384 00R'
p85
(lp86
VI14-R
p87
asS'T342 00I'
p88
(lp89
VH12-I
p90
asS'B12 01I'
p91
(lp92
VB12-I
p93
asS'T211 C0 00I'
p94
(lp95
V211c-I
p96
asS'T449 00I'
p97
(lp98
VD09-I
p99
asS'T366 00R'
p100
(lp101
VE16-R
p102
asS'F07 00I'
p103
(lp104
VF07-I
p105
asS'T211 C0 00R'
p106
(lp107
V211c-R
p108
asS'T342 00R'
p109
(lp110
VH12-R
p111
asS'F07 00R'
p112
(lp113
VF07-R
p114
asS'T366 00I'
p115
(lp116
VE16-I
p117
asS'T449 00R'
p118
(lp119
VD09-R
p120
asS'F12 00R'
p121
(lp122
VF12-R
p123
asS'T235 00I'
p124
(lp125
VG05-I
p126
asS'T430 00R'
p127
(lp128
V430-R
p129
asS'B26 00I'
p130
(lp131
VB26-I
p132
asS'T224 00R'
p133
(lp134
V224-R
p135
asS'F29 00I'
p136
(lp137
VF29-I
p138
asS'B07 00I'
p139
(lp140
VB07-I
p141
asS'L4R-I'
p142
(lp143
VL4R-I
p144
asS'T214 00R'
p145
(lp146
V214-R
p147
asS'T387 00R'
p148
(lp149
VI17-R
p150
asS'T214 00I'
p151
(lp152
V214-I
p153
asS'L4R-R'
p154
(lp155
VL4R-R
p156
asS'F29 00R'
p157
(lp158
VF29-R
p159
asS'T224 00I'
p160
(lp161
V224-I
p162
asS'B26 00R'
p163
(lp164
VB26-R
p165
asS'T531 00R'
p166
(lp167
VJ11-R
p168
asS'L5V-I'
p169
(lp170
VL5V-I
p171
asS'T334 00I'
p172
(lp173
VH04-I
p174
asS'T212 01I'
p175
(lp176
V212-I
p177
asS'T334 00R'
p178
(lp179
VH04-R
p180
asS'T458 01R'
p181
(lp182
VD18-R
p183
asS'T413 C2 00I'
p184
(lp185
V413v-I
p186
asS'T238 00I'
p187
(lp188
VG08-I
p189
asS'T243 00R'
p190
(lp191
VG13-R
p192
asS'T448 00R'
p193
(lp194
VD08-R
p195
asS'T523 00I'
p196
(lp197
VJ03-I
p198
asS'B23 00R'
p199
(lp200
VB23-R
p201
asS'T538 C0 00I'
p202
(lp203
VJ18c-I
p204
asS'T246 00I'
p205
(lp206
VG16-I
p207
asS'T121 00I'
p208
(lp209
V121-I
p210
asS'B23 00I'
p211
(lp212
VB23-I
p213
asS'T121 00R'
p214
(lp215
V121-R
p216
asS'T246 00R'
p217
(lp218
VG16-R
p219
asS'T243 00I'
p220
(lp221
VG13-I
p222
asS'T238 00R'
p223
(lp224
VG08-R
p225
asS'T448 00I'
p226
(lp227
VD08-I
p228
asS'T445 02R'
p229
(lp230
VD05-R
p231
asS'T117 00I'
p232
(lp233
V117-I
p234
asS'F20 00R'
p235
(lp236
VF20-R
p237
asS'T518 00I'
p238
(lp239
V518-I
p240
asS'T339 00R'
p241
(lp242
VH09-R
p243
asS'T527 00I'
p244
(lp245
VJ07-I
p246
asS'T201 00I'
p247
(lp248
V201-I
p249
asS'T339 00I'
p250
(lp251
VH09-I
p252
asS'T201 00R'
p253
(lp254
V201-R
p255
asS'T518 00R'
p256
(lp257
V518-R
p258
asS'T384 00I'
p259
(lp260
VI14-I
p261
asS'F20 00I'
p262
(lp263
VF20-I
p264
asS'T117 00R'
p265
(lp266
V117-R
p267
asS'T345 01R'
p268
(lp269
V345-R
p270
asS'T367 00R'
p271
(lp272
VE17-R
p273
asS'T409 00R'
p274
(lp275
V409-R
p276
asS'T210 C2 00I'
p277
(lp278
V210v-I
p279
asS'T409 00I'
p280
(lp281
V409-I
p282
asS'T210 C2 00R'
p283
(lp284
V210v-R
p285
asS'T414 E0 00I'
p286
(lp287
V414e-I
p288
asS'T460 00I'
p289
(lp290
VD20-I
p291
asS'T353 00I'
p292
(lp293
VE03-I
p294
asS'T206 00R'
p295
(lp296
V206-R
p297
asS'T517 00R'
p298
(lp299
V517-R
p300
asS'T524 00R'
p301
(lp302
VJ04-R
p303
asS'T513 00R'
p304
(lp305
V513-R
p306
asS'T442 00R'
p307
(lp308
VD02-R
p309
asS'F05 00I'
p310
(lp311
VF05-I
p312
asS'T363 00I'
p313
(lp314
VE13-I
p315
asS'F05 00R'
p316
(lp317
VF05-R
p318
asS'T517 00I'
p319
(lp320
V517-I
p321
asS'T206 00I'
p322
(lp323
V206-I
p324
asS'T513 00I'
p325
(lp326
V513-I
p327
asS'T524 00I'
p328
(lp329
VJ04-I
p330
asS'T425 00R'
p331
(lp332
V425-R
p333
asS'T353 00R'
p334
(lp335
VE03-R
p336
asS'T228 00R'
p337
(lp338
V228-R
p339
asS'L4A-R'
p340
(lp341
VL4A-R
p342
asS'T228 00I'
p343
(lp344
V228-I
p345
asS'B54 00I'
p346
(lp347
VC04-I
p348
asS'L4A-I'
p349
(lp350
VL4A-I
p351
asS'T425 00I'
p352
(lp353
V425-I
p354
asS'T359 00I'
p355
(lp356
VE09-I
p357
asS'B04 00R'
p358
(lp359
VB04-R
p360
asS'B72 00R'
p361
(lp362
VC22-R
p363
asS'B63 00R'
p364
(lp365
VC13-R
p366
asS'T442 00I'
p367
(lp368
VD02-I
p369
asS'T506 E0 00I'
p370
(lp371
V506e-I
p372
asS'B27 00R'
p373
(lp374
VB27-R
p375
asS'B27 00I'
p376
(lp377
VB27-I
p378
asS'T371 01R'
p379
(lp380
VI01-R
p381
asS'T506 E0 00R'
p382
(lp383
V506e-R
p384
asS'B04 00I'
p385
(lp386
VB04-I
p387
asS'T417 E0 00I'
p388
(lp389
V417e-I
p390
asS'B63 00I'
p391
(lp392
VC13-I
p393
asS'T104 01I'
p394
(lp395
V104-I
p396
asS'T307 00I'
p397
(lp398
V307-I
p399
asS'T419 00I'
p400
(lp401
V419-I
p402
asS'T308 00R'
p403
(lp404
V308-R
p405
asS'T344 03R'
p406
(lp407
VH14-R
p408
asS'F25 01R'
p409
(lp410
VF25-R
p411
asS'T419 00R'
p412
(lp413
V419-R
p414
asS'B55 01R'
p415
(lp416
VC05-R
p417
asS'T447 C0 00I'
p418
(lp419
VD07c-I
p420
asS'T115 01R'
p421
(lp422
V115-R
p423
asS'T539 00I'
p424
(lp425
VJ19-I
p426
asS'T248 00I'
p427
(lp428
VG18-I
p429
asS'T226 00R'
p430
(lp431
V226-R
p432
asS'T113 C1 00R'
p433
(lp434
V113c-R
p435
asS'T351 00I'
p436
(lp437
VE01-I
p438
asS'T329 03I'
p439
(lp440
V329-I
p441
asS'T113 C1 00I'
p442
(lp443
V113c-I
p444
asS'T363 00R'
p445
(lp446
VE13-R
p447
asS'T351 00R'
p448
(lp449
VE01-R
p450
asS'T227 01R'
p451
(lp452
V227-R
p453
asS'T248 00R'
p454
(lp455
VG18-R
p456
asS'T543 00R'
p457
(lp458
V424-R
p459
asS'T226 00I'
p460
(lp461
V226-I
p462
asS'T211 00I'
p463
(lp464
V211-I
p465
asS'B53 00I'
p466
(lp467
VC03-I
p468
asS'T379 00I'
p469
(lp470
VI09-I
p471
asS'T447 C0 00R'
p472
(lp473
VD07c-R
p474
asS'T519 E0 00R'
p475
(lp476
V519e-R
p477
asS'T321 00I'
p478
(lp479
V321-I
p480
asS'T321 00R'
p481
(lp482
V321-R
p483
asS'F15 00R'
p484
(lp485
VF15-R
p486
asS'T211 00R'
p487
(lp488
V211-R
p489
asS'T379 00R'
p490
(lp491
VI09-R
p492
asS'T514 03R'
p493
(lp494
V514-R
p495
asS'B53 00R'
p496
(lp497
VC03-R
p498
asS'T308 00I'
p499
(lp500
V308-I
p501
asS'T389 00I'
p502
(lp503
VI20-I
p504
asS'T332 00I'
p505
(lp506
VH02-I
p507
asS'T329 03R'
p508
(lp509
V329-R
p510
asS'B01 00I'
p511
(lp512
VB01-I
p513
asS'T422 00I'
p514
(lp515
V422-I
p516
asS'T457 00I'
p517
(lp518
VD17-I
p519
asS'T332 00R'
p520
(lp521
VH02-R
p522
asS'T415 E0 00I'
p523
(lp524
V415e-I
p525
asS'B01 00R'
p526
(lp527
VB01-R
p528
asS'T389 00R'
p529
(lp530
VI20-R
p531
asS'T231 00R'
p532
(lp533
VG01-R
p534
asS'T106 00I'
p535
(lp536
V106-I
p537
asS'T335 C0 00R'
p538
(lp539
VH05c-R
p540
asS'T102 00I'
p541
(lp542
V102-I
p543
asS'T301 00I'
p544
(lp545
V301-I
p546
asS'F15 00I'
p547
(lp548
VF15-I
p549
asS'T534 C0 00I'
p550
(lp551
VJ14c-I
p552
asS'T546 E0 00I'
p553
(lp554
V546e-I
p555
asS'T534 C0 00R'
p556
(lp557
VJ14c-R
p558
asS'T106 00R'
p559
(lp560
V106-R
p561
asS'T231 00I'
p562
(lp563
VG01-I
p564
asS'T301 00R'
p565
(lp566
V301-R
p567
asS'T102 00R'
p568
(lp569
V102-R
p570
asS'T335 C0 00I'
p571
(lp572
VH05c-I
p573
asS'B22 00I'
p574
(lp575
VB22-I
p576
asS'B11 00R'
p577
(lp578
VB11-R
p579
asS'T386 00R'
p580
(lp581
VI16-R
p582
asS'T422 00R'
p583
(lp584
V422-R
p585
asS'T428 C0 00R'
p586
(lp587
V428c-R
p588
asS'T382 00R'
p589
(lp590
VI12-R
p591
asS'B12 00I'
p592
(lp593
VB12-I
p594
asS'T234 00I'
p595
(lp596
VG04-I
p597
asS'B12 00R'
p598
(lp599
VB12-R
p600
asS'T234 00R'
p601
(lp602
VG04-R
p603
asS'T455 00R'
p604
(lp605
VD15-R
p606
asS'T386 00I'
p607
(lp608
VI16-I
p609
asS'B11 00I'
p610
(lp611
VB11-I
p612
asS'B22 00R'
p613
(lp614
VB22-R
p615
asS'T382 00I'
p616
(lp617
VI12-I
p618
asS'T428 C0 00I'
p619
(lp620
V428c-I
p621
asS'L1-I'
p622
(lp623
VL1-I
p624
asS'B53 C0 00I'
p625
(lp626
VC03c-I
p627
asS'T505 00R'
p628
(lp629
V505-R
p630
asS'T110 00R'
p631
(lp632
V110-R
p633
asS'B53 C0 00R'
p634
(lp635
VC03c-R
p636
asS'T527 E0 00I'
p637
(lp638
VJ07e-I
p639
asS'T505 00I'
p640
(lp641
V505-I
p642
asS'T352 00R'
p643
(lp644
VE02-R
p645
asS'T543 00I'
p646
(lp647
V424-I
p648
asS'T224 01I'
p649
(lp650
V224-I
p651
asS'B51 C0 00I'
p652
(lp653
VC01c-I
p654
asS'T367 00I'
p655
(lp656
VE17-I
p657
asS'B09 00I'
p658
(lp659
VB09-I
p660
asS'B68 00I'
p661
(lp662
VC18-I
p663
asS'T405 00R'
p664
(lp665
V405-R
p666
asS'T355 00I'
p667
(lp668
VE05-I
p669
asS'T208 C0 00I'
p670
(lp671
V208c-I
p672
asS'T325 01R'
p673
(lp674
V325-R
p675
asS'T208 C0 00R'
p676
(lp677
V208c-R
p678
asS'T355 00R'
p679
(lp680
VE05-R
p681
asS'T401 00I'
p682
(lp683
V401-I
p684
asS'B51 C0 00R'
p685
(lp686
VC01c-R
p687
asS'T405 00I'
p688
(lp689
V405-I
p690
asS'B68 00R'
p691
(lp692
VC18-R
p693
asS'B09 00R'
p694
(lp695
VB09-R
p696
asS'T301 C0 01R'
p697
(lp698
V301c-R
p699
asS'T380 00R'
p700
(lp701
VI10-R
p702
asS'B64 00I'
p703
(lp704
VC14-I
p705
asS'T429 00R'
p706
(lp707
V429-R
p708
asS'B64 00R'
p709
(lp710
VC14-R
p711
asS'B18 E0 00I'
p712
(lp713
VB18e-I
p714
asS'T429 00I'
p715
(lp716
V429-I
p717
asS'T430 00I'
p718
(lp719
V430-I
p720
asS'T502 C0 00I'
p721
(lp722
V502c-I
p723
asS'T406 C0 00I'
p724
(lp725
V406c-I
p726
asS'B61 00R'
p727
(lp728
VC11-R
p729
asS'T208 00R'
p730
(lp731
V208-R
p732
asS'T378 C0 00I'
p733
(lp734
VI08c-I
p735
asS'B52 00R'
p736
(lp737
VC02-R
p738
asS'B52 00I'
p739
(lp740
VC02-I
p741
asS'B67 00I'
p742
(lp743
VC17-I
p744
asS'B61 00I'
p745
(lp746
VC11-I
p747
asS'T314 00I'
p748
(lp749
V314-I
p750
asS'T252 00R'
p751
(lp752
VG22-R
p753
asS'T354 00R'
p754
(lp755
VE04-R
p756
asS'F10 00I'
p757
(lp758
VF10-I
p759
asS'F08 00R'
p760
(lp761
VF08-R
p762
asS'F08 00I'
p763
(lp764
VF08-I
p765
asS'T445 00I'
p766
(lp767
VD05-I
p768
asS'T344 03I'
p769
(lp770
VH14-I
p771
asS'F10 00R'
p772
(lp773
VF10-R
p774
asS'T354 00I'
p775
(lp776
VE04-I
p777
asS'T252 00I'
p778
(lp779
VG22-I
p780
asS'T456 00I'
p781
(lp782
VD16-I
p783
asS'F12 C0 00I'
p784
(lp785
VF12c-I
p786
asS'T202 C0 00R'
p787
(lp788
V202c-R
p789
asS'B69 00I'
p790
(lp791
VC19-I
p792
asS'T374 C0 00R'
p793
(lp794
VI04c-R
p795
asS'T345 00R'
p796
(lp797
V345-R
p798
asS'T315 E0 00I'
p799
(lp800
V315e-I
p801
asS'T126 01I'
p802
(lp803
V126-I
p804
asS'F12 C0 00R'
p805
(lp806
VF12c-R
p807
asS'T128 E0 00I'
p808
(lp809
V408e-I
p810
asS'T202 C0 00I'
p811
(lp812
V202c-I
p813
asS'T374 00R'
p814
(lp815
VI04-R
p816
asS'T413 C0 00I'
p817
(lp818
V413c-I
p819
asS'T514 01I'
p820
(lp821
V514-I
p822
asS'T429 C0 00I'
p823
(lp824
V429c-I
p825
asS'T530 00I'
p826
(lp827
VJ10-I
p828
asS'B56 00R'
p829
(lp830
VC06-R
p831
asS'T301 C0 00R'
p832
(lp833
V301c-R
p834
asS'B59 00I'
p835
(lp836
VC09-I
p837
asS'B56 00I'
p838
(lp839
VC06-I
p840
asS'T530 00R'
p841
(lp842
VJ10-R
p843
asS'T455 00I'
p844
(lp845
VD15-I
p846
asS'B59 00R'
p847
(lp848
VC09-R
p849
asS'T442 01I'
p850
(lp851
VD02-I
p852
asS'T403 01I'
p853
(lp854
V403-I
p855
asS'T531 00I'
p856
(lp857
VJ11-I
p858
asS'T374 00I'
p859
(lp860
VI04-I
p861
asS'B67 00R'
p862
(lp863
VC17-R
p864
asS'T539 00R'
p865
(lp866
VJ19-R
p867
asS'F19 00R'
p868
(lp869
VF19-R
p870
asS'T411 00I'
p871
(lp872
V411-I
p873
asS'T371 00I'
p874
(lp875
VI01-I
p876
asS'T411 00R'
p877
(lp878
V411-R
p879
asS'T126 00R'
p880
(lp881
V126-R
p882
asS'T371 00R'
p883
(lp884
VI01-R
p885
asS'T130 E0 00I'
p886
(lp887
V410e-I
p888
asS'F19 00I'
p889
(lp890
VF19-I
p891
asS'T104 00I'
p892
(lp893
V104-I
p894
asS'F16 00I'
p895
(lp896
VF16-I
p897
asS'T111 00I'
p898
(lp899
V111-I
p900
asS'T303 00I'
p901
(lp902
V303-I
p903
asS'T115 00I'
p904
(lp905
V115-I
p906
asS'F25 00I'
p907
(lp908
VF25-I
p909
asS'T451 00I'
p910
(lp911
VD11-I
p912
asS'F25 00R'
p913
(lp914
VF25-R
p915
asS'T111 00R'
p916
(lp917
V111-R
p918
asS'F16 00R'
p919
(lp920
VF16-R
p921
asS'T104 00R'
p922
(lp923
V104-R
p924
asS'T443 00R'
p925
(lp926
VD03-R
p927
asS'T303 00R'
p928
(lp929
V303-R
p930
asS'T373 C0 00I'
p931
(lp932
VI03c-I
p933
asS'T404 C0 00R'
p934
(lp935
V404c-R
p936
asS'T120 00R'
p937
(lp938
V120-R
p939
asS'B24 00I'
p940
(lp941
VB24-I
p942
asS'T526 00R'
p943
(lp944
VJ06-R
p945
asS'T212 00R'
p946
(lp947
V212-R
p948
asS'T454 00I'
p949
(lp950
VD14-I
p951
asS'T458 00I'
p952
(lp953
VD18-I
p954
asS'T507 C0 00I'
p955
(lp956
V507c-I
p957
asS'T212 00I'
p958
(lp959
V212-I
p960
asS'T443 00I'
p961
(lp962
VD03-I
p963
asS'T458 00R'
p964
(lp965
VD18-R
p966
asS'T374 C0 00I'
p967
(lp968
VI04c-I
p969
asS'T522 00I'
p970
(lp971
VJ02-I
p972
asS'T443 01I'
p973
(lp974
VD03-I
p975
asS'T526 00I'
p976
(lp977
VJ06-I
p978
asS'B24 00R'
p979
(lp980
VB24-R
p981
asS'T120 00I'
p982
(lp983
V120-I
p984
asS'T456 00R'
p985
(lp986
VD16-R
p987
asS'T450 00I'
p988
(lp989
VD10-I
p990
asS'L5V-R'
p991
(lp992
VL5V-R
p993
asS'B28 00I'
p994
(lp995
VB28-I
p996
asS'T429 C0 00R'
p997
(lp998
V429c-R
p999
asS'T450 01R'
p1000
(lp1001
VD10-R
p1002
asS'T302 E0 00I'
p1003
(lp1004
V302e-I
p1005
asS'F53 E0 00R'
p1006
(lp1007
V213e-R
p1008
asS'T451 00R'
p1009
(lp1010
VD11-R
p1011
asS'T448 C0 00R'
p1012
(lp1013
VD08c-R
p1014
asS'T221 E0 00R'
p1015
(lp1016
V221e-R
p1017
asS'T420 E0 00R'
p1018
(lp1019
V420e-R
p1020
asS'F01 00I'
p1021
(lp1022
VF01-I
p1023
asS'T203 00I'
p1024
(lp1025
V203-I
p1026
asS'T307 E0 00I'
p1027
(lp1028
V307e-I
p1029
asS'T126 00I'
p1030
(lp1031
V126-I
p1032
asS'F01 00R'
p1033
(lp1034
VF01-R
p1035
asS'T420 E0 00I'
p1036
(lp1037
V420e-I
p1038
asS'T307 E0 00R'
p1039
(lp1040
V307e-R
p1041
asS'T203 00R'
p1042
(lp1043
V203-R
p1044
asS'F02 00I'
p1045
(lp1046
VF02-I
p1047
asS'T447 00I'
p1048
(lp1049
VD07-I
p1050
asS'T221 E0 00I'
p1051
(lp1052
V221e-I
p1053
asS'T448 C0 00I'
p1054
(lp1055
VD08c-I
p1056
asS'T217 E0 00R'
p1057
(lp1058
V217e-R
p1059
asS'L2R-I'
p1060
(lp1061
VL2R-I
p1062
asS'T385 03I'
p1063
(lp1064
V385-I
p1065
asS'T302 E0 00R'
p1066
(lp1067
V302e-R
p1068
asS'T533 C0 00R'
p1069
(lp1070
VJ13c-R
p1071
asS'T230 00I'
p1072
(lp1073
V230-I
p1074
asS'T205 E0 00R'
p1075
(lp1076
V205e-R
p1077
asS'T301 E0 01R'
p1078
(lp1079
V301e-R
p1080
asS'T205 E0 00I'
p1081
(lp1082
V205e-I
p1083
asS'T230 00R'
p1084
(lp1085
V230-R
p1086
asS'T533 C0 00I'
p1087
(lp1088
VJ13c-I
p1089
asS'T457 00R'
p1090
(lp1091
VD17-R
p1092
asS'T301 E0 01I'
p1093
(lp1094
V301e-I
p1095
asS'T217 E0 00I'
p1096
(lp1097
V217e-I
p1098
asS'T405 C0 00R'
p1099
(lp1100
V405c-R
p1101
asS'B15 00R'
p1102
(lp1103
VB15-R
p1104
asS'B60 E0 00I'
p1105
(lp1106
VC10e-I
p1107
asS'T368 00R'
p1108
(lp1109
VI21-R
p1110
asS'B60 E0 00R'
p1111
(lp1112
VC10e-R
p1113
asS'T374 E0 00I'
p1114
(lp1115
VI04e-I
p1116
asS'B15 00I'
p1117
(lp1118
VB15-I
p1119
asS'T405 C0 00I'
p1120
(lp1121
V405c-I
p1122
asS'T348 00I'
p1123
(lp1124
V348-I
p1125
asS'T264 C3 00R'
p1126
(lp1127
V264N-R
p1128
asS'L5R-I'
p1129
(lp1130
VL5R-I
p1131
asS'T113 E0 00I'
p1132
(lp1133
V113e-I
p1134
asS'F03 C0 00I'
p1135
(lp1136
VF03c-I
p1137
asS'T336 00I'
p1138
(lp1139
VH06-I
p1140
asS'T450 00R'
p1141
(lp1142
VD10-R
p1143
asS'F03 C0 00R'
p1144
(lp1145
VF03c-R
p1146
asS'T336 00R'
p1147
(lp1148
VH06-R
p1149
asS'T333 00I'
p1150
(lp1151
VH03-I
p1152
asS'T348 00R'
p1153
(lp1154
V348-R
p1155
asS'T509 01R'
p1156
(lp1157
V509-R
p1158
asS'F26 00R'
p1159
(lp1160
VF26-R
p1161
asS'T508 00I'
p1162
(lp1163
V508-I
p1164
asS'B19 00R'
p1165
(lp1166
VB19-R
p1167
asS'T373 01I'
p1168
(lp1169
VI03-I
p1170
asS'T536 00I'
p1171
(lp1172
VJ16-I
p1173
asS'T514 00R'
p1174
(lp1175
V514-R
p1176
asS'B19 00I'
p1177
(lp1178
VB19-I
p1179
asS'T508 00R'
p1180
(lp1181
V508-R
p1182
asS'T253 00R'
p1183
(lp1184
VG23-R
p1185
asS'F26 00I'
p1186
(lp1187
VF26-I
p1188
asS'T404 C0 00I'
p1189
(lp1190
V404c-I
p1191
asS'T229 00I'
p1192
(lp1193
V229-I
p1194
asS'T231 C0 00R'
p1195
(lp1196
VG01c-R
p1197
asS'T426 00I'
p1198
(lp1199
V426-I
p1200
asS'T385 03R'
p1201
(lp1202
V385-R
p1203
asS'T426 00R'
p1204
(lp1205
V426-R
p1206
asS'T537 00I'
p1207
(lp1208
VJ17-I
p1209
asS'T231 C0 00I'
p1210
(lp1211
VG01c-I
p1212
asS'T229 00R'
p1213
(lp1214
V229-R
p1215
asS'B06 00R'
p1216
(lp1217
VB06-R
p1218
asS'T509 00I'
p1219
(lp1220
V509-I
p1221
asS'T352 00I'
p1222
(lp1223
VE02-I
p1224
asS'B05 00I'
p1225
(lp1226
VB05-I
p1227
asS'T130 00I'
p1228
(lp1229
V410-I
p1230
asS'T227 00I'
p1231
(lp1232
V227-I
p1233
asS'T368 00I'
p1234
(lp1235
VI21-I
p1236
asS'B05 00R'
p1237
(lp1238
VB05-R
p1239
asS'T227 00R'
p1240
(lp1241
V227-R
p1242
asS'T130 00R'
p1243
(lp1244
V410-R
p1245
asS'B06 00I'
p1246
(lp1247
VB06-I
p1248
asS'F18 00I'
p1249
(lp1250
VF18-I
p1251
asS'T519 E0 00I'
p1252
(lp1253
V519e-I
p1254
asS'T363 01R'
p1255
(lp1256
VE13-R
p1257
asS'T118 00R'
p1258
(lp1259
V118-R
p1260
asS'T532 00R'
p1261
(lp1262
VJ12-R
p1263
asS'T109 00R'
p1264
(lp1265
V109-R
p1266
asS'T513 C2 00R'
p1267
(lp1268
V513v-R
p1269
asS'T358 00R'
p1270
(lp1271
VE08-R
p1272
asS'B69 00R'
p1273
(lp1274
VC19-R
p1275
asS'F11 00R'
p1276
(lp1277
VF11-R
p1278
asS'T101 00R'
p1279
(lp1280
V101-R
p1281
asS'L5R-R'
p1282
(lp1283
VL5R-R
p1284
asS'T358 00I'
p1285
(lp1286
VE08-I
p1287
asS'B02 00R'
p1288
(lp1289
VB02-R
p1290
asS'T101 00I'
p1291
(lp1292
V101-I
p1293
asS'F11 00I'
p1294
(lp1295
VF11-I
p1296
asS'T208 00I'
p1297
(lp1298
V208-I
p1299
asS'F18 00R'
p1300
(lp1301
VF18-R
p1302
asS'T515 00I'
p1303
(lp1304
V515N-I
p1305
asS'T118 00I'
p1306
(lp1307
V118-I
p1308
asS'T301 C0 01I'
p1309
(lp1310
V301c-I
p1311
asS'T241 00R'
p1312
(lp1313
VG11-R
p1314
asS'F13 C0 00R'
p1315
(lp1316
VF13c-R
p1317
asS'T201 E0 00I'
p1318
(lp1319
V201e-I
p1320
asS'T421 00R'
p1321
(lp1322
V421-R
p1323
asS'B51 00I'
p1324
(lp1325
VC01-I
p1326
asS'T239 00R'
p1327
(lp1328
VG09-R
p1329
asS'T210 00R'
p1330
(lp1331
V210-R
p1332
asS'F23 00I'
p1333
(lp1334
VF23-I
p1335
asS'T210 00I'
p1336
(lp1337
V210-I
p1338
asS'T239 00I'
p1339
(lp1340
VG09-I
p1341
asS'F23 00R'
p1342
(lp1343
VF23-R
p1344
asS'F13 C0 00I'
p1345
(lp1346
VF13c-I
p1347
asS'T441 00I'
p1348
(lp1349
VD01-I
p1350
asS'T241 00I'
p1351
(lp1352
VG11-I
p1353
asS'B51 00R'
p1354
(lp1355
VC01-R
p1356
asS'T421 00I'
p1357
(lp1358
V421-I
p1359
asS'T201 E0 00R'
p1360
(lp1361
V201e-R
p1362
asS'T403 00R'
p1363
(lp1364
V403-R
p1365
asS'T101 C0 00I'
p1366
(lp1367
V101c-I
p1368
asS'T375 00I'
p1369
(lp1370
VI05-I
p1371
asS'T507 00R'
p1372
(lp1373
V507-R
p1374
asS'T375 00R'
p1375
(lp1376
VI05-R
p1377
asS'T507 00I'
p1378
(lp1379
V507-I
p1380
asS'T403 00I'
p1381
(lp1382
V403-I
p1383
asS'T101 C0 00R'
p1384
(lp1385
V101c-R
p1386
asS'T431 C0 00R'
p1387
(lp1388
V431c-R
p1389
asS'T338 00I'
p1390
(lp1391
VH08-I
p1392
asS'T356 00R'
p1393
(lp1394
VE06-R
p1395
asS'T219 E0 00I'
p1396
(lp1397
V219e-I
p1398
asS'T365 C0 00R'
p1399
(lp1400
VE15c-R
p1401
asS'T314 E0 00I'
p1402
(lp1403
V314e-I
p1404
asS'T314 E0 00R'
p1405
(lp1406
V314e-R
p1407
asS'T365 C0 00I'
p1408
(lp1409
VE15c-I
p1410
asS'T338 00R'
p1411
(lp1412
VH08-R
p1413
asS'T431 C0 00I'
p1414
(lp1415
V431c-I
p1416
asS'T219 E0 00R'
p1417
(lp1418
V219e-R
p1419
asS'T361 00I'
p1420
(lp1421
VE11-I
p1422
asS'T359 00R'
p1423
(lp1424
VE09-R
p1425
asS'T245 00R'
p1426
(lp1427
VG15-R
p1428
asS'T313 E0 00R'
p1429
(lp1430
V313e-R
p1431
asS'T109 00I'
p1432
(lp1433
V109-I
p1434
asS'T505 01I'
p1435
(lp1436
V505-I
p1437
asS'T528 00R'
p1438
(lp1439
VJ08-R
p1440
asS'T361 00R'
p1441
(lp1442
VE11-R
p1443
asS'T313 E0 00I'
p1444
(lp1445
V313e-I
p1446
asS'T245 00I'
p1447
(lp1448
VG15-I
p1449
asS'T110 C0 00I'
p1450
(lp1451
V110c-I
p1452
asS'F25 E0 01R'
p1453
(lp1454
VF25e-R
p1455
asS'T207 E0 00R'
p1456
(lp1457
V207e-R
p1458
asS'F02 00R'
p1459
(lp1460
VF02-R
p1461
asS'T232 00I'
p1462
(lp1463
VG02-I
p1464
asS'T385 00I'
p1465
(lp1466
V385-I
p1467
asS'T216 00R'
p1468
(lp1469
V216-R
p1470
asS'T385 00R'
p1471
(lp1472
V385-R
p1473
asS'T232 00R'
p1474
(lp1475
VG02-R
p1476
asS'T216 00I'
p1477
(lp1478
V216-I
p1479
asS'F25 E0 01I'
p1480
(lp1481
VF25e-I
p1482
asS'T110 C0 00R'
p1483
(lp1484
V110c-R
p1485
asS'T207 E0 00I'
p1486
(lp1487
V207e-I
p1488
asS'B18 00I'
p1489
(lp1490
VB18-I
p1491
asS'T510 00I'
p1492
(lp1493
V510-I
p1494
asS'T503 00R'
p1495
(lp1496
V503-R
p1497
asS'T510 00R'
p1498
(lp1499
V510-R
p1500
asS'T380 00I'
p1501
(lp1502
VI10-I
p1503
asS'B18 00R'
p1504
(lp1505
VB18-R
p1506
asS'T441 00R'
p1507
(lp1508
VD01-R
p1509
asS'T355 01I'
p1510
(lp1511
VE05-I
p1512
asS'T504 00I'
p1513
(lp1514
V504-I
p1515
asS'F06 00R'
p1516
(lp1517
VF06-R
p1518
asS'T402 00I'
p1519
(lp1520
V402-I
p1521
asS'B62 00I'
p1522
(lp1523
VC12-I
p1524
asS'T344 00I'
p1525
(lp1526
VH14-I
p1527
asS'T383 00I'
p1528
(lp1529
VI13-I
p1530
asS'T402 00R'
p1531
(lp1532
V402-R
p1533
asS'T344 00R'
p1534
(lp1535
VH14-R
p1536
asS'B62 00R'
p1537
(lp1538
VC12-R
p1539
asS'F06 00I'
p1540
(lp1541
VF06-I
p1542
asS'T504 00R'
p1543
(lp1544
V504-R
p1545
asS'T113 00I'
p1546
(lp1547
V113-I
p1548
asS'F09 00I'
p1549
(lp1550
VF09-I
p1551
asS'B20 00I'
p1552
(lp1553
VB20-I
p1554
asS'F14 00I'
p1555
(lp1556
VF14-I
p1557
asS'T301 C2 00R'
p1558
(lp1559
V301c2-R
p1560
asS'T310 00I'
p1561
(lp1562
VI24-I
p1563
asS'B17 00R'
p1564
(lp1565
VB17-R
p1566
asS'B25 00R'
p1567
(lp1568
VB25-R
p1569
asS'T301 C0 00I'
p1570
(lp1571
V301c-I
p1572
asS'T503 00I'
p1573
(lp1574
V503-I
p1575
asS'B25 00I'
p1576
(lp1577
VB25-I
p1578
asS'F14 00R'
p1579
(lp1580
VF14-R
p1581
asS'B20 00R'
p1582
(lp1583
VB20-R
p1584
asS'F09 00R'
p1585
(lp1586
VF09-R
p1587
asS'T113 00R'
p1588
(lp1589
V113-R
p1590
asS'B17 00I'
p1591
(lp1592
VB17-I
p1593
asS'T310 00R'
p1594
(lp1595
VI24-R
p1596
asS'T326 00R'
p1597
(lp1598
VD13-R
p1599
asS'T343 00R'
p1600
(lp1601
VH13-R
p1602
asS'T383 00R'
p1603
(lp1604
VI13-R
p1605
asS'T428 00I'
p1606
(lp1607
V428-I
p1608
asS'T509 00R'
p1609
(lp1610
V509-R
p1611
asS'T401 C1 00R'
p1612
(lp1613
V401c-R
p1614
asS'F13 00R'
p1615
(lp1616
VF13-R
p1617
asS'T449 01R'
p1618
(lp1619
VD09-R
p1620
asS'T362 00I'
p1621
(lp1622
VE12-I
p1623
asS'T401 00R'
p1624
(lp1625
V401-R
p1626
asS'F13 00I'
p1627
(lp1628
VF13-I
p1629
asS'T401 C1 00I'
p1630
(lp1631
V401c-I
p1632
asS'T343 00I'
p1633
(lp1634
VH13-I
p1635
asS'T326 00I'
p1636
(lp1637
VD13-I
p1638
asS'T428 00R'
p1639
(lp1640
V428-R
p1641
asS'F53 E0 00I'
p1642
(lp1643
V213e-I
p1644
asS'T508 01I'
p1645
(lp1646
V508-I
p1647
asS'T388 00R'
p1648
(lp1649
VI18-R
p1650
asS'T116 00I'
p1651
(lp1652
V116-I
p1653
asS'T388 00I'
p1654
(lp1655
VI18-I
p1656
asS'B07 01R'
p1657
(lp1658
VB07-R
p1659
asS'B58 00R'
p1660
(lp1661
VC08-R
p1662
asS'T107 00R'
p1663
(lp1664
V107-R
p1665
asS'T540 00I'
p1666
(lp1667
VJ20-I
p1668
asS'T514 C0 00R'
p1669
(lp1670
V514c-R
p1671
asS'T107 00I'
p1672
(lp1673
V107-I
p1674
asS'T445 00R'
p1675
(lp1676
VD05-R
p1677
asS'B58 00I'
p1678
(lp1679
VC08-I
p1680
asS'T431 C2 00I'
p1681
(lp1682
V431v-I
p1683
asS'T322 00R'
p1684
(lp1685
V322-R
p1686
asS'T223 00I'
p1687
(lp1688
V223-I
p1689
asS'T539 07R'
p1690
(lp1691
VJ19-R
p1692
asS'T223 00R'
p1693
(lp1694
V223-R
p1695
asS'T503 01I'
p1696
(lp1697
V503-I
p1698
asS'T345 00I'
p1699
(lp1700
V345-I
p1701
asS'T322 00I'
p1702
(lp1703
V322-I
p1704
asS'T441 01I'
p1705
(lp1706
VD01-I
p1707
asS'B57 01R'
p1708
(lp1709
VC07-R
p1710
asS'L6-R'
p1711
(lp1712
VL6-R
p1713
asS'T377 00I'
p1714
(lp1715
VI07-I
p1716
asS'T108 00I'
p1717
(lp1718
V108-I
p1719
asS'T422 01I'
p1720
(lp1721
V422-I
p1722
asS'T204 E0 00I'
p1723
(lp1724
V204e-I
p1725
asS'T521 C0 00R'
p1726
(lp1727
VJ01c-R
p1728
asS'T377 00R'
p1729
(lp1730
VI07-R
p1731
asS'T204 E0 00R'
p1732
(lp1733
V204e-R
p1734
asS'T507 C0 00R'
p1735
(lp1736
V507c-R
p1737
asS'T108 00R'
p1738
(lp1739
V108-R
p1740
asS'T527 C0 00I'
p1741
(lp1742
VJ07c-I
p1743
asS'L6-I'
p1744
(lp1745
VL6-I
p1746
asS'B57 01I'
p1747
(lp1748
VC07-I
p1749
asS'T237 00R'
p1750
(lp1751
VG07-R
p1752
asS'T358 01R'
p1753
(lp1754
VE08-R
p1755
asS'T119 00I'
p1756
(lp1757
V119-I
p1758
asS'B10 00I'
p1759
(lp1760
VB10-I
p1761
asS'T381 00I'
p1762
(lp1763
VI11-I
p1764
asS'B10 00R'
p1765
(lp1766
VB10-R
p1767
asS'T119 00R'
p1768
(lp1769
V119-R
p1770
asS'T528 00I'
p1771
(lp1772
VJ08-I
p1773
asS'T381 00R'
p1774
(lp1775
VI11-R
p1776
asS'T237 00I'
p1777
(lp1778
VG07-I
p1779
asS'T301 E0 00R'
p1780
(lp1781
V301e-R
p1782
asS'MT-R'
p1783
(lp1784
VMT-R
p1785
asS'T521 00I'
p1786
(lp1787
VJ01-I
p1788
asS'T447 00R'
p1789
(lp1790
VD07-R
p1791
asS'T244 00I'
p1792
(lp1793
VG14-I
p1794
asS'T521 00R'
p1795
(lp1796
VJ01-R
p1797
asS'MT-I'
p1798
(lp1799
VMT-I
p1800
asS'T350 C0 00I'
p1801
(lp1802
V350c-I
p1803
asS'T244 00R'
p1804
(lp1805
VG14-R
p1806
asS'T316 E0 00R'
p1807
(lp1808
V316e-R
p1809
asS'B65 00R'
p1810
(lp1811
VC15-R
p1812
asS'T337 01I'
p1813
(lp1814
VH07-I
p1815
asS'T337 00R'
p1816
(lp1817
VH07-R
p1818
asS'T406 00I'
p1819
(lp1820
V406-I
p1821
asS'T406 00R'
p1822
(lp1823
V406-R
p1824
asS'B65 00I'
p1825
(lp1826
VC15-I
p1827
asS'T337 00I'
p1828
(lp1829
VH07-I
p1830
asS'T205 00I'
p1831
(lp1832
V205-I
p1833
asS'L2R-R'
p1834
(lp1835
VL2R-R
p1836
asS'T454 00R'
p1837
(lp1838
VD14-R
p1839
asS'T452 00I'
p1840
(lp1841
VD12-I
p1842
asS'T206 C0 00R'
p1843
(lp1844
V206c-R
p1845
asS'T242 00I'
p1846
(lp1847
VG12-I
p1848
asS'T357 00I'
p1849
(lp1850
VE07-I
p1851
asS'T242 00R'
p1852
(lp1853
VG12-R
p1854
asS'T206 C0 00I'
p1855
(lp1856
V206c-I
p1857
asS'T357 00R'
p1858
(lp1859
VE07-R
p1860
asS'B72 01R'
p1861
(lp1862
VC22-R
p1863
asS'T209 E0 00I'
p1864
(lp1865
V209e-I
p1866
asS'T452 00R'
p1867
(lp1868
VD12-R
p1869
asS'T356 01I'
p1870
(lp1871
VE06-I
p1872
asS'B55 00I'
p1873
(lp1874
VC05-I
p1875
asS'T205 00R'
p1876
(lp1877
V205-R
p1878
asS'T203 E0 00R'
p1879
(lp1880
V203e-R
p1881
asS'F01 C0 00R'
p1882
(lp1883
VF01c-R
p1884
asS'T203 E0 00I'
p1885
(lp1886
V203e-I
p1887
asS'B02 00I'
p1888
(lp1889
VB02-I
p1890
asS'T537 00R'
p1891
(lp1892
VJ17-R
p1893
asS'T378 00I'
p1894
(lp1895
VI08-I
p1896
asS'B55 00R'
p1897
(lp1898
VC05-R
p1899
asS'T312 E0 00I'
p1900
(lp1901
V312e-I
p1902
asS'T532 00I'
p1903
(lp1904
VJ12-I
p1905
asS'T423 00R'
p1906
(lp1907
V423-R
p1908
asS'T117 C0 00I'
p1909
(lp1910
V117c-I
p1911
asS'T373 00I'
p1912
(lp1913
VI03-I
p1914
asS'B14 00I'
p1915
(lp1916
VB14-I
p1917
asS'B14 00R'
p1918
(lp1919
VB14-R
p1920
asS'T450 01I'
p1921
(lp1922
VD10-I
p1923
asS'T373 00R'
p1924
(lp1925
VI03-R
p1926
asS'T423 00I'
p1927
(lp1928
V423-I
p1929
asS'T301 E0 00I'
p1930
(lp1931
V301e-I
p1932
asS'L2V-R'
p1933
(lp1934
VL2V-R
p1935
asS'T501 00R'
p1936
(lp1937
V501-R
p1938
asS'T103 00R'
p1939
(lp1940
V103-R
p1941
asS'T501 00I'
p1942
(lp1943
V501-I
p1944
asS'T103 00I'
p1945
(lp1946
V103-I
p1947
asS'L1-R'
p1948
(lp1949
VL1-R
p1950
asS'L2V-I'
p1951
(lp1952
VL2V-I
p1953
asS'F24 00R'
p1954
(lp1955
VF24-R
p1956
asS'B13 00R'
p1957
(lp1958
VB13-R
p1959
asS'B18 E0 00R'
p1960
(lp1961
VB18e-R
p1962
asS'F27 00I'
p1963
(lp1964
VF27-I
p1965
asS'T225 00I'
p1966
(lp1967
V225-I
p1968
asS'T406 C0 00R'
p1969
(lp1970
V406c-R
p1971
asS'F27 00R'
p1972
(lp1973
VF27-R
p1974
asS'T110 00I'
p1975
(lp1976
V110-I
p1977
asS'T335 00R'
p1978
(lp1979
VH05-R
p1980
asS'T225 00R'
p1981
(lp1982
V225-R
p1983
asS'B13 00I'
p1984
(lp1985
VB13-I
p1986
asS'T113 01R'
p1987
(lp1988
V113-R
p1989
asS'F24 00I'
p1990
(lp1991
VF24-I
p1992
asS'B70 00I'
p1993
(lp1994
VC20-I
p1995
asS'T106 01I'
p1996
(lp1997
V106-I
p1998
asS'F52 00R'
p1999
(lp2000
V712-R
p2001
asS'T248 03R'
p2002
(lp2003
VG18-R
p2004
asS'T372 00R'
p2005
(lp2006
VI02-R
p2007
asS'T302 00R'
p2008
(lp2009
V302-R
p2010
asS'T302 00I'
p2011
(lp2012
V302-I
p2013
asS'T369 00I'
p2014
(lp2015
VI22-I
p2016
asS'F52 00I'
p2017
(lp2018
V712-I
p2019
asS'T372 00I'
p2020
(lp2021
VI02-I
p2022
asS'T335 00I'
p2023
(lp2024
VH05-I
p2025
asS'T538 00I'
p2026
(lp2027
VJ18-I
p2028
asS'T315 E0 02R'
p2029
(lp2030
V315e-R
p2031
asS'B52 C0 01R'
p2032
(lp2033
VC02c-R
p2034
asS'T379 E0 00I'
p2035
(lp2036
VI09e-I
p2037
asS'T323 00I'
p2038
(lp2039
V323-I
p2040
asS'B52 C0 01I'
p2041
(lp2042
VC02c-I
p2043
asS'T333 00R'
p2044
(lp2045
VH03-R
p2046
asS'T323 00R'
p2047
(lp2048
V323-R
p2049
asS'T379 E0 00R'
p2050
(lp2051
VI09e-R
p2052
asS'T315 E0 02I'
p2053
(lp2054
V315e-I
p2055
asS'T538 00R'
p2056
(lp2057
VJ18-R
p2058
asS'T513 01I'
p2059
(lp2060
V513-I
p2061
asS'B29 00R'
p2062
(lp2063
VB29-R
p2064
asS'T209 00I'
p2065
(lp2066
V209-I
p2067
asS'T516 00I'
p2068
(lp2069
V516-I
p2070
asS'T369 00R'
p2071
(lp2072
VI22-R
p2073
asS'B54 01R'
p2074
(lp2075
VC04-R
p2076
asS'B21 00R'
p2077
(lp2078
VB21-R
p2079
asS'T516 00R'
p2080
(lp2081
V516-R
p2082
asS'T418 00R'
p2083
(lp2084
V418-R
p2085
asS'B29 00I'
p2086
(lp2087
VB29-I
p2088
asS'T209 00R'
p2089
(lp2090
V209-R
p2091
asS'T325 00I'
p2092
(lp2093
V325-I
p2094
asS'T125 00I'
p2095
(lp2096
V125-I
p2097
asS'T535 C0 00R'
p2098
(lp2099
VJ15c-R
p2100
asS'B16 00I'
p2101
(lp2102
VB16-I
p2103
asS'T517 01I'
p2104
(lp2105
V517-I
p2106
asS'B08 00R'
p2107
(lp2108
VB08-R
p2109
asS'T125 00R'
p2110
(lp2111
V125-R
p2112
asS'T325 00R'
p2113
(lp2114
V325-R
p2115
asS'B08 00I'
p2116
(lp2117
VB08-I
p2118
asS'B16 00R'
p2119
(lp2120
VB16-R
p2121
asS'T204 00R'
p2122
(lp2123
V204-R
p2124
asS'T502 00I'
p2125
(lp2126
V502-I
p2127
asS'T238 E0 00R'
p2128
(lp2129
VG08v-R
p2130
asS'T329 00I'
p2131
(lp2132
V329-I
p2133
asS'T506 00I'
p2134
(lp2135
V506-I
p2136
asS'F03 00I'
p2137
(lp2138
VF03-I
p2139
asS'T418 00I'
p2140
(lp2141
V418-I
p2142
asS'F03 00R'
p2143
(lp2144
VF03-R
p2145
asS'T238 E0 00I'
p2146
(lp2147
VG08v-I
p2148
asS'T502 00R'
p2149
(lp2150
V502-R
p2151
asS'T204 00I'
p2152
(lp2153
V204-I
p2154
asS'T506 00R'
p2155
(lp2156
V506-R
p2157
asS'T329 00R'
p2158
(lp2159
V329-R
p2160
asS'T428 E0 00R'
p2161
(lp2162
V428e-R
p2163
asS'T107 C0 00I'
p2164
(lp2165
V107c-I
p2166
asS'T350 00R'
p2167
(lp2168
V350-R
p2169
asS'T511 00R'
p2170
(lp2171
V511-R
p2172
asS'T349 00R'
p2173
(lp2174
VE18-R
p2175
asS'T360 00R'
p2176
(lp2177
VE10-R
p2178
asS'T404 00I'
p2179
(lp2180
V404-I
p2181
asS'B04V 00R'
p2182
(lp2183
VB04v-R
p2184
asS'T360 00I'
p2185
(lp2186
VE10-I
p2187
asS'T349 00I'
p2188
(lp2189
VE18-I
p2190
asS'B04V 00I'
p2191
(lp2192
VB04v-I
p2193
asS'T404 00R'
p2194
(lp2195
V404-R
p2196
asS'T350 00I'
p2197
(lp2198
V350-I
p2199
asS'T107 C0 00R'
p2200
(lp2201
V107c-R
p2202
asS'T428 E0 00I'
p2203
(lp2204
V428e-I
p2205
asS'T511 00I'
p2206
(lp2207
V511-I
p2208
asS'T533 00R'
p2209
(lp2210
VJ13-R
p2211
asS'T506 E1 00R'
p2212
(lp2213
V506v-R
p2214
asS'T209 E0 00R'
p2215
(lp2216
V209e-R
p2217
asS'T435 00R'
p2218
(lp2219
V435-R
p2220
asS'B21 00I'
p2221
(lp2222
VB21-I
p2223
asS'T435 00I'
p2224
(lp2225
V435-I
p2226
asS'T533 00I'
p2227
(lp2228
VJ13-I
p2229
asS'T506 E1 00I'
p2230
(lp2231
V506v-I
p2232
as.