ccollections
defaultdict
p0
(cdill._dill
_load_type
p1
(S'ListType'
p2
tp3
Rp4
tp5
Rp6
VB02-R
p7
(lp8
S'B02 00R'
p9
asVJ01c-R
p10
(lp11
S'T521 C0 00R'
p12
asVL4V-R
p13
(lp14
S'L4V-R'
p15
asVH08-I
p16
(lp17
S'T338 00I'
p18
asVB28-I
p19
(lp20
S'B28 00I'
p21
asVH08-R
p22
(lp23
S'T338 00R'
p24
asVL4V-I
p25
(lp26
S'L4V-I'
p27
asV412-R
p28
(lp29
S'T412 00R'
p30
asVB02-I
p31
(lp32
S'B02 00I'
p33
asVF14-I
p34
(lp35
S'F14 00I'
p36
asV345-R
p37
(lp38
S'T345 00R'
p39
aS'T345 01R'
p40
asVB24-R
p41
(lp42
S'B24 00R'
p43
asV408-R
p44
(lp45
S'T128 00R'
p46
asVD07c-R
p47
(lp48
S'T447 C0 00R'
p49
asVB24-I
p50
(lp51
S'B24 00I'
p52
asVD07c-I
p53
(lp54
S'T447 C0 00I'
p55
asVF14-R
p56
(lp57
S'F14 00R'
p58
asV345-I
p59
(lp60
S'T345 00I'
p61
asVI04-R
p62
(lp63
S'T374 00R'
p64
asV107c-R
p65
(lp66
S'T107 C0 00R'
p67
asVC17-R
p68
(lp69
S'B67 00R'
p70
asV404c-R
p71
(lp72
S'T404 C0 00R'
p73
asVC19-R
p74
(lp75
S'B69 00R'
p76
asVI14-R
p77
(lp78
S'T384 00R'
p79
asV404c-I
p80
(lp81
S'T404 C0 00I'
p82
asVI14-I
p83
(lp84
S'T384 00I'
p85
asVC19-I
p86
(lp87
S'B69 00I'
p88
asVI04-I
p89
(lp90
S'T374 00I'
p91
asV116-I
p92
(lp93
S'T116 00I'
p94
asVC17-I
p95
(lp96
S'B67 00I'
p97
asV107c-I
p98
(lp99
S'T107 C0 00I'
p100
asVB18e-R
p101
(lp102
S'B18 E0 00R'
p103
asVC13-R
p104
(lp105
S'B63 00R'
p106
asVB06-R
p107
(lp108
S'B06 00R'
p109
asVF10-R
p110
(lp111
S'F10 00R'
p112
asVI03-R
p113
(lp114
S'T373 00R'
p115
asVC14-I
p116
(lp117
S'B64 00I'
p118
asVI18-R
p119
(lp120
S'T388 00R'
p121
asVB01-R
p122
(lp123
S'B01 00R'
p124
asVL4R-I
p125
(lp126
S'L4R-I'
p127
asVB01-I
p128
(lp129
S'B01 00I'
p130
asVI18-I
p131
(lp132
S'T388 00I'
p133
asVI17-R
p134
(lp135
S'T387 00R'
p136
asVL4R-R
p137
(lp138
S'L4R-R'
p139
asVC13-I
p140
(lp141
S'B63 00I'
p142
asVC14-R
p143
(lp144
S'B64 00R'
p145
asVI03-I
p146
(lp147
S'T373 00I'
p148
aS'T373 01I'
p149
asVF10-I
p150
(lp151
S'F10 00I'
p152
asVB06-I
p153
(lp154
S'B06 00I'
p155
asVH06-R
p156
(lp157
S'T336 00R'
p158
asV519e-I
p159
(lp160
S'T519 E0 00I'
p161
asV301c-I
p162
(lp163
S'T301 C0 00I'
p164
aS'T301 C0 01I'
p165
asVH05-R
p166
(lp167
S'T335 00R'
p168
asVL5V-I
p169
(lp170
S'L5V-I'
p171
asV403-R
p172
(lp173
S'T403 00R'
p174
asVL5V-R
p175
(lp176
S'L5V-R'
p177
asVH05-I
p178
(lp179
S'T335 00I'
p180
asV415e-I
p181
(lp182
S'T415 E0 00I'
p183
asV403-I
p184
(lp185
S'T403 00I'
p186
aS'T403 01I'
p187
asVH06-I
p188
(lp189
S'T336 00I'
p190
asVJ07e-I
p191
(lp192
S'T527 E0 00I'
p193
asV519e-R
p194
(lp195
S'T519 E0 00R'
p196
asV113-R
p197
(lp198
S'T113 00R'
p199
aS'T113 01R'
p200
asVC11-R
p201
(lp202
S'B61 00R'
p203
asVL5R-I
p204
(lp205
S'L5R-I'
p206
asVD08c-I
p207
(lp208
S'T448 C0 00I'
p209
asV111-R
p210
(lp211
S'T111 00R'
p212
asV111-I
p213
(lp214
S'T111 00I'
p215
asV113-I
p216
(lp217
S'T113 00I'
p218
asVD08c-R
p219
(lp220
S'T448 C0 00R'
p221
asVL5R-R
p222
(lp223
S'L5R-R'
p224
asVC12-R
p225
(lp226
S'B62 00R'
p227
asV413c-I
p228
(lp229
S'T413 C0 00I'
p230
asV712-R
p231
(lp232
S'F52 00R'
p233
asV401c-I
p234
(lp235
S'T401 C1 00I'
p236
asV510-I
p237
(lp238
S'T510 00I'
p239
asV203-I
p240
(lp241
S'T203 00I'
p242
asVC01-I
p243
(lp244
S'B51 00I'
p245
asVI12-R
p246
(lp247
S'T382 00R'
p248
asV208-R
p249
(lp250
S'T208 00R'
p251
asV208-I
p252
(lp253
S'T208 00I'
p254
asV712-I
p255
(lp256
S'F52 00I'
p257
asV203-R
p258
(lp259
S'T203 00R'
p260
asV510-R
p261
(lp262
S'T510 00R'
p263
asV401c-R
p264
(lp265
S'T401 C1 00R'
p266
asVG18-R
p267
(lp268
S'T248 00R'
p269
aS'T248 03R'
p270
asV225-R
p271
(lp272
S'T225 00R'
p273
asV204-R
p274
(lp275
S'T204 00R'
p276
asV204-I
p277
(lp278
S'T204 00I'
p279
asVB18e-I
p280
(lp281
S'B18 E0 00I'
p282
asV225-I
p283
(lp284
S'T225 00I'
p285
asVG18-I
p286
(lp287
S'T248 00I'
p288
asV422-I
p289
(lp290
S'T422 00I'
p291
aS'T422 01I'
p292
asV414e-I
p293
(lp294
S'T414 E0 00I'
p295
asVH09-I
p296
(lp297
S'T339 00I'
p298
asVB29-I
p299
(lp300
S'B29 00I'
p301
asVI12-I
p302
(lp303
S'T382 00I'
p304
asVB03-R
p305
(lp306
S'B03 00R'
p307
asVH02-R
p308
(lp309
S'T332 00R'
p310
asV407-I
p311
(lp312
S'T407 00I'
p313
asVB29-R
p314
(lp315
S'B29 00R'
p316
asVH02-I
p317
(lp318
S'T332 00I'
p319
asVB03-I
p320
(lp321
S'B03 00I'
p322
asV422-R
p323
(lp324
S'T422 00R'
p325
asV417e-I
p326
(lp327
S'T417 E0 00I'
p328
asVB13-R
p329
(lp330
S'B13 00R'
p331
asV404-R
p332
(lp333
S'T404 00R'
p334
asVB09-R
p335
(lp336
S'B09 00R'
p337
asVF24-R
p338
(lp339
S'F24 00R'
p340
asV425-R
p341
(lp342
S'T425 00R'
p343
asVF23-R
p344
(lp345
S'F23 00R'
p346
asVB20-R
p347
(lp348
S'B20 00R'
p349
asVL4A-R
p350
(lp351
S'L4A-R'
p352
asVB26-R
p353
(lp354
S'B26 00R'
p355
asVE09-I
p356
(lp357
S'T359 00I'
p358
asVF23-I
p359
(lp360
S'F23 00I'
p361
asVE09-R
p362
(lp363
S'T359 00R'
p364
asVB26-I
p365
(lp366
S'B26 00I'
p367
asVL4A-I
p368
(lp369
S'L4A-I'
p370
asVB23-R
p371
(lp372
S'B23 00R'
p373
asVB09-I
p374
(lp375
S'B09 00I'
p376
asV404-I
p377
(lp378
S'T404 00I'
p379
asV425-I
p380
(lp381
S'T425 00I'
p382
asVF24-I
p383
(lp384
S'F24 00I'
p385
asV202c-I
p386
(lp387
S'T202 C0 00I'
p388
asV114-R
p389
(lp390
S'T114 00R'
p391
asV408-I
p392
(lp393
S'T128 00I'
p394
asV410e-I
p395
(lp396
S'T130 E0 00I'
p397
asVE01-R
p398
(lp399
S'T351 00R'
p400
asV117-R
p401
(lp402
S'T117 00R'
p403
asV117-I
p404
(lp405
S'T117 00I'
p406
asVE01-I
p407
(lp408
S'T351 00I'
p409
asV202c-R
p410
(lp411
S'T202 C0 00R'
p412
asVD03-I
p413
(lp414
S'T443 00I'
p415
aS'T443 01I'
p416
asV119-I
p417
(lp418
S'T119 00I'
p419
asV114-I
p420
(lp421
S'T114 00I'
p422
asVG16-I
p423
(lp424
S'T246 00I'
p425
asVB07-R
p426
(lp427
S'B07 01R'
p428
asVC15-I
p429
(lp430
S'B65 00I'
p431
asV518-R
p432
(lp433
S'T518 00R'
p434
asVE06-I
p435
(lp436
S'T356 01I'
p437
asVC16-I
p438
(lp439
S'B66 00I'
p440
asVB05-R
p441
(lp442
S'B05 00R'
p443
asVC16-R
p444
(lp445
S'B66 00R'
p446
asVE06-R
p447
(lp448
S'T356 00R'
p449
asVB05-I
p450
(lp451
S'B05 00I'
p452
asV413v-I
p453
(lp454
S'T413 C2 00I'
p455
asVC15-R
p456
(lp457
S'B65 00R'
p458
asVB07-I
p459
(lp460
S'B07 00I'
p461
asV518-I
p462
(lp463
S'T518 00I'
p464
asVJ01-R
p465
(lp466
S'T521 00R'
p467
asVG13-R
p468
(lp469
S'T243 00R'
p470
asV429-R
p471
(lp472
S'T429 00R'
p473
asV429-I
p474
(lp475
S'T429 00I'
p476
asVJ01-I
p477
(lp478
S'T521 00I'
p479
asVG13-I
p480
(lp481
S'T243 00I'
p482
asV402-I
p483
(lp484
S'T402 00I'
p485
asVF02-R
p486
(lp487
S'F02 00R'
p488
asV506v-I
p489
(lp490
S'T506 E1 00I'
p491
asVJ06-R
p492
(lp493
S'T526 00R'
p494
asVF05-R
p495
(lp496
S'F05 00R'
p497
asV507-R
p498
(lp499
S'T507 00R'
p500
asVF05-I
p501
(lp502
S'F05 00I'
p503
asV301c2-R
p504
(lp505
S'T301 C2 00R'
p506
asV307e-R
p507
(lp508
S'T307 E0 00R'
p509
asV402-R
p510
(lp511
S'T402 00R'
p512
asV506v-R
p513
(lp514
S'T506 E1 00R'
p515
asVF02-I
p516
(lp517
S'F02 00I'
p518
asVF20-R
p519
(lp520
S'F20 00R'
p521
asV406c-R
p522
(lp523
S'T406 C0 00R'
p524
asV421-R
p525
(lp526
S'T421 00R'
p527
asVB04v-R
p528
(lp529
S'B04V 00R'
p530
asVB27-I
p531
(lp532
S'B27 00I'
p533
asVB25-I
p534
(lp535
S'B25 00I'
p536
asVB27-R
p537
(lp538
S'B27 00R'
p539
asVB25-R
p540
(lp541
S'B25 00R'
p542
asV421-I
p543
(lp544
S'T421 00I'
p545
asV406c-I
p546
(lp547
S'T406 C0 00I'
p548
asVF20-I
p549
(lp550
S'F20 00I'
p551
asVB04v-I
p552
(lp553
S'B04V 00I'
p554
asVJ20-I
p555
(lp556
S'T540 00I'
p557
asVG14-I
p558
(lp559
S'T244 00I'
p560
asVC02c-R
p561
(lp562
S'B52 C0 01R'
p563
asVC02c-I
p564
(lp565
S'B52 C0 01I'
p566
asV515N-I
p567
(lp568
S'T515 00I'
p569
asV385-I
p570
(lp571
S'T385 00I'
p572
aS'T385 03I'
p573
asVG15-I
p574
(lp575
S'T245 00I'
p576
asVG14-R
p577
(lp578
S'T244 00R'
p579
asVD03-R
p580
(lp581
S'T443 00R'
p582
asVD20-I
p583
(lp584
S'T460 00I'
p585
asVB04-I
p586
(lp587
S'B04 00I'
p588
asV423-R
p589
(lp590
S'T423 00R'
p591
asV429c-I
p592
(lp593
S'T429 C0 00I'
p594
asVI24-I
p595
(lp596
S'T310 00I'
p597
asV408e-I
p598
(lp599
S'T128 E0 00I'
p600
asVI24-R
p601
(lp602
S'T310 00R'
p603
asVB04-R
p604
(lp605
S'B04 00R'
p606
asV429c-R
p607
(lp608
S'T429 C0 00R'
p609
asV423-I
p610
(lp611
S'T423 00I'
p612
asV308-I
p613
(lp614
S'T308 00I'
p615
asVF25-R
p616
(lp617
S'F25 00R'
p618
aS'F25 01R'
p619
asVB22-R
p620
(lp621
S'B22 00R'
p622
asVF25e-I
p623
(lp624
S'F25 E0 01I'
p625
asVI20-I
p626
(lp627
S'T389 00I'
p628
asVB21-R
p629
(lp630
S'B21 00R'
p631
asVE08-I
p632
(lp633
S'T358 00I'
p634
asV405-R
p635
(lp636
S'T405 00R'
p637
asVF27-R
p638
(lp639
S'F27 00R'
p640
asVE08-R
p641
(lp642
S'T358 00R'
p643
aS'T358 01R'
p644
asVB21-I
p645
(lp646
S'B21 00I'
p647
asVI20-R
p648
(lp649
S'T389 00R'
p650
asVF27-I
p651
(lp652
S'F27 00I'
p653
asV405-I
p654
(lp655
S'T405 00I'
p656
asVB22-I
p657
(lp658
S'B22 00I'
p659
asVF25-I
p660
(lp661
S'F25 00I'
p662
asV308-R
p663
(lp664
S'T308 00R'
p665
asVF25e-R
p666
(lp667
S'F25 E0 01R'
p668
asVF06-R
p669
(lp670
S'F06 00R'
p671
asV110-I
p672
(lp673
S'T110 00I'
p674
asVE03-R
p675
(lp676
S'T353 00R'
p677
asV428e-R
p678
(lp679
S'T428 E0 00R'
p680
asV428e-I
p681
(lp682
S'T428 E0 00I'
p683
asV307-I
p684
(lp685
S'T307 00I'
p686
asVE03-I
p687
(lp688
S'T353 00I'
p689
asV110-R
p690
(lp691
S'T110 00R'
p692
asVF06-I
p693
(lp694
S'F06 00I'
p695
asVF13-I
p696
(lp697
S'F13 00I'
p698
asVB08-I
p699
(lp700
S'B08 00I'
p701
asV118-I
p702
(lp703
S'T118 00I'
p704
asV420e-I
p705
(lp706
S'T420 E0 00I'
p707
asVH05c-I
p708
(lp709
S'T335 C0 00I'
p710
asV420e-R
p711
(lp712
S'T420 E0 00R'
p713
asV118-R
p714
(lp715
S'T118 00R'
p716
asVH05c-R
p717
(lp718
S'T335 C0 00R'
p719
asV501-I
p720
(lp721
S'T501 00I'
p722
asVB08-R
p723
(lp724
S'B08 00R'
p725
asVJ07-I
p726
(lp727
S'T527 00I'
p728
asV217e-I
p729
(lp730
S'T217 E0 00I'
p731
asVJ04-I
p732
(lp733
S'T524 00I'
p734
asVD17-I
p735
(lp736
S'T457 00I'
p737
asVL2V-I
p738
(lp739
S'L2V-I'
p740
asVD17-R
p741
(lp742
S'T457 00R'
p743
asVJ04-R
p744
(lp745
S'T524 00R'
p746
asVJ02-I
p747
(lp748
S'T522 00I'
p749
asV217e-R
p750
(lp751
S'T217 E0 00R'
p752
asVF03-R
p753
(lp754
S'F03 00R'
p755
asVG11-I
p756
(lp757
S'T241 00I'
p758
asVD10-I
p759
(lp760
S'T450 00I'
p761
aS'T450 01I'
p762
asV428-R
p763
(lp764
S'T428 00R'
p765
asVG12-I
p766
(lp767
S'T242 00I'
p768
asV426-I
p769
(lp770
S'T426 00I'
p771
asVF01-R
p772
(lp773
S'F01 00R'
p774
asVE05-R
p775
(lp776
S'T355 00R'
p777
asVG12-R
p778
(lp779
S'T242 00R'
p780
asVF01-I
p781
(lp782
S'F01 00I'
p783
asVG11-R
p784
(lp785
S'T241 00R'
p786
asVF03-I
p787
(lp788
S'F03 00I'
p789
asV428-I
p790
(lp791
S'T428 00I'
p792
asVD10-R
p793
(lp794
S'T450 00R'
p795
aS'T450 01R'
p796
asV303-R
p797
(lp798
S'T303 00R'
p799
asV424-I
p800
(lp801
S'T543 00I'
p802
asV507c-R
p803
(lp804
S'T507 C0 00R'
p805
asVE07-R
p806
(lp807
S'T357 00R'
p808
asV507c-I
p809
(lp810
S'T507 C0 00I'
p811
asV424-R
p812
(lp813
S'T543 00R'
p814
asV303-I
p815
(lp816
S'T303 00I'
p817
asVE07-I
p818
(lp819
S'T357 00I'
p820
asV431c-I
p821
(lp822
S'T431 C0 00I'
p823
asVJ03-I
p824
(lp825
S'T523 00I'
p826
asVF29-R
p827
(lp828
S'F29 00R'
p829
asVD14-I
p830
(lp831
S'T454 00I'
p832
asVG15-R
p833
(lp834
S'T245 00R'
p835
asVJ13c-R
p836
(lp837
S'T533 C0 00R'
p838
asVC10e-R
p839
(lp840
S'B60 E0 00R'
p841
asVE04-I
p842
(lp843
S'T354 00I'
p844
asVD13-I
p845
(lp846
S'T326 00I'
p847
asVC10e-I
p848
(lp849
S'B60 E0 00I'
p850
asVE05-I
p851
(lp852
S'T355 00I'
p853
aS'T355 01I'
p854
asVD13-R
p855
(lp856
S'T326 00R'
p857
asVF13-R
p858
(lp859
S'F13 00R'
p860
asVD14-R
p861
(lp862
S'T454 00R'
p863
asVJ13c-I
p864
(lp865
S'T533 C0 00I'
p866
asVG16-R
p867
(lp868
S'T246 00R'
p869
asVJ13-I
p870
(lp871
S'T533 00I'
p872
asV412-I
p873
(lp874
S'T412 00I'
p875
asV204e-R
p876
(lp877
S'T204 E0 00R'
p878
asV517-I
p879
(lp880
S'T517 00I'
p881
aS'T517 01I'
p882
asV204e-I
p883
(lp884
S'T204 E0 00I'
p885
asV507-I
p886
(lp887
S'T507 00I'
p888
asV210v-R
p889
(lp890
S'T210 C2 00R'
p891
asV514c-R
p892
(lp893
S'T514 C0 00R'
p894
asV401-I
p895
(lp896
S'T401 00I'
p897
asV201e-R
p898
(lp899
S'T201 E0 00R'
p900
asV201e-I
p901
(lp902
S'T201 E0 00I'
p903
asVC02-I
p904
(lp905
S'B52 00I'
p906
asV514-I
p907
(lp908
S'T514 00I'
p909
aS'T514 01I'
p910
asVF29-I
p911
(lp912
S'F29 00I'
p913
asV428c-R
p914
(lp915
S'T428 C0 00R'
p916
asV350-R
p917
(lp918
S'T350 00R'
p919
asVL2V-R
p920
(lp921
S'L2V-R'
p922
asVF09-R
p923
(lp924
S'F09 00R'
p925
asVF01c-R
p926
(lp927
S'F01 C0 00R'
p928
asVC03c-I
p929
(lp930
S'B53 C0 00I'
p931
asVF07-R
p932
(lp933
S'F07 00R'
p934
asVC03c-R
p935
(lp936
S'B53 C0 00R'
p937
asV203e-I
p938
(lp939
S'T203 E0 00I'
p940
asVF07-I
p941
(lp942
S'F07 00I'
p943
asV117c-I
p944
(lp945
S'T117 C0 00I'
p946
asV428c-I
p947
(lp948
S'T428 C0 00I'
p949
asVF09-I
p950
(lp951
S'F09 00I'
p952
asV350-I
p953
(lp954
S'T350 00I'
p955
asVF03c-I
p956
(lp957
S'F03 C0 00I'
p958
asVJ08-R
p959
(lp960
S'T528 00R'
p961
asVC08-R
p962
(lp963
S'B58 00R'
p964
asV514-R
p965
(lp966
S'T514 00R'
p967
aS'T514 03R'
p968
asV206c-I
p969
(lp970
S'T206 C0 00I'
p971
asVC08-I
p972
(lp973
S'B58 00I'
p974
asV206c-R
p975
(lp976
S'T206 C0 00R'
p977
asVJ08-I
p978
(lp979
S'T528 00I'
p980
asVF03c-R
p981
(lp982
S'F03 C0 00R'
p983
asV505-I
p984
(lp985
S'T505 00I'
p986
aS'T505 01I'
p987
asVD16-I
p988
(lp989
S'T456 00I'
p990
asVD15-I
p991
(lp992
S'T455 00I'
p993
asVI21-R
p994
(lp995
S'T368 00R'
p996
asVI21-I
p997
(lp998
S'T368 00I'
p999
asVD15-R
p1000
(lp1001
S'T455 00R'
p1002
asV517-R
p1003
(lp1004
S'T517 00R'
p1005
asV505-R
p1006
(lp1007
S'T505 00R'
p1008
asVD16-R
p1009
(lp1010
S'T456 00R'
p1011
asVC22-I
p1012
(lp1013
S'B72 00I'
p1014
asV212-I
p1015
(lp1016
S'T212 00I'
p1017
aS'T212 01I'
p1018
asV264N-R
p1019
(lp1020
S'T264 C3 00R'
p1021
asV502-R
p1022
(lp1023
S'T502 00R'
p1024
asVD11-R
p1025
(lp1026
S'T451 00R'
p1027
asVI01-I
p1028
(lp1029
S'T371 00I'
p1030
asV209e-I
p1031
(lp1032
S'T209 E0 00I'
p1033
asV207e-R
p1034
(lp1035
S'T207 E0 00R'
p1036
asVI22-I
p1037
(lp1038
S'T369 00I'
p1039
asV214-R
p1040
(lp1041
S'T214 00R'
p1042
asVD11-I
p1043
(lp1044
S'T451 00I'
p1045
asVI22-R
p1046
(lp1047
S'T369 00R'
p1048
asV207e-I
p1049
(lp1050
S'T207 E0 00I'
p1051
asV203e-R
p1052
(lp1053
S'T203 E0 00R'
p1054
asVC22-R
p1055
(lp1056
S'B72 00R'
p1057
aS'B72 01R'
p1058
asV502-I
p1059
(lp1060
S'T502 00I'
p1061
asV212-R
p1062
(lp1063
S'T212 00R'
p1064
asVF26-I
p1065
(lp1066
S'F26 00I'
p1067
asVI02-R
p1068
(lp1069
S'T372 00R'
p1070
asV431c-R
p1071
(lp1072
S'T431 C0 00R'
p1073
asV301-R
p1074
(lp1075
S'T301 00R'
p1076
asV301-I
p1077
(lp1078
S'T301 00I'
p1079
asVF26-R
p1080
(lp1081
S'F26 00R'
p1082
asVC12-I
p1083
(lp1084
S'B62 00I'
p1085
asV216-I
p1086
(lp1087
S'T216 00I'
p1088
asV119-R
p1089
(lp1090
S'T119 00R'
p1091
asVD12-I
p1092
(lp1093
S'T452 00I'
p1094
asV120-R
p1095
(lp1096
S'T120 00R'
p1097
asV313e-I
p1098
(lp1099
S'T313 E0 00I'
p1100
asVJ13-R
p1101
(lp1102
S'T533 00R'
p1103
asV302-I
p1104
(lp1105
S'T302 00I'
p1106
asV211-I
p1107
(lp1108
S'T211 00I'
p1109
asV120-I
p1110
(lp1111
S'T120 00I'
p1112
asVD12-R
p1113
(lp1114
S'T452 00R'
p1115
asV211-R
p1116
(lp1117
S'T211 00R'
p1118
asV302-R
p1119
(lp1120
S'T302 00R'
p1121
asVMT-I
p1122
(lp1123
S'MT-I'
p1124
asV313e-R
p1125
(lp1126
S'T313 E0 00R'
p1127
asV216-R
p1128
(lp1129
S'T216 00R'
p1130
asV109-R
p1131
(lp1132
S'T109 00R'
p1133
asV509-R
p1134
(lp1135
S'T509 00R'
p1136
aS'T509 01R'
p1137
asVC09-R
p1138
(lp1139
S'B59 00R'
p1140
asVC04-R
p1141
(lp1142
S'B54 01R'
p1143
asV431v-I
p1144
(lp1145
S'T431 C2 00I'
p1146
asVJ19-R
p1147
(lp1148
S'T539 00R'
p1149
aS'T539 07R'
p1150
asV109-I
p1151
(lp1152
S'T109 00I'
p1153
asVC04-I
p1154
(lp1155
S'B54 00I'
p1156
asVC09-I
p1157
(lp1158
S'B59 00I'
p1159
asV509-I
p1160
(lp1161
S'T509 00I'
p1162
asVB11-R
p1163
(lp1164
S'B11 00R'
p1165
asVC07-I
p1166
(lp1167
S'B57 01I'
p1168
asVC01c-R
p1169
(lp1170
S'B51 C0 00R'
p1171
asVB16-R
p1172
(lp1173
S'B16 00R'
p1174
asV211c-I
p1175
(lp1176
S'T211 C0 00I'
p1177
asVB16-I
p1178
(lp1179
S'B16 00I'
p1180
asVC01c-I
p1181
(lp1182
S'B51 C0 00I'
p1183
asV211c-R
p1184
(lp1185
S'T211 C0 00R'
p1186
asVC07-R
p1187
(lp1188
S'B57 01R'
p1189
asVB11-I
p1190
(lp1191
S'B11 00I'
p1192
asV506-R
p1193
(lp1194
S'T506 00R'
p1195
asV230-R
p1196
(lp1197
S'T230 00R'
p1198
asVG08v-R
p1199
(lp1200
S'T238 E0 00R'
p1201
asVD18-I
p1202
(lp1203
S'T458 00I'
p1204
asVH14-I
p1205
(lp1206
S'T344 00I'
p1207
aS'T344 03I'
p1208
asVG08v-I
p1209
(lp1210
S'T238 E0 00I'
p1211
asVH14-R
p1212
(lp1213
S'T344 00R'
p1214
aS'T344 03R'
p1215
asV506-I
p1216
(lp1217
S'T506 00I'
p1218
asV230-I
p1219
(lp1220
S'T230 00I'
p1221
asVC03-I
p1222
(lp1223
S'B53 00I'
p1224
asV110c-I
p1225
(lp1226
S'T110 C0 00I'
p1227
asVF08-I
p1228
(lp1229
S'F08 00I'
p1230
asVD05-R
p1231
(lp1232
S'T445 00R'
p1233
aS'T445 02R'
p1234
asVF08-R
p1235
(lp1236
S'F08 00R'
p1237
asVC11-I
p1238
(lp1239
S'B61 00I'
p1240
asVC03-R
p1241
(lp1242
S'B53 00R'
p1243
asV110c-R
p1244
(lp1245
S'T110 C0 00R'
p1246
asVE10-I
p1247
(lp1248
S'T360 00I'
p1249
asV401-R
p1250
(lp1251
S'T401 00R'
p1252
asVH12-R
p1253
(lp1254
S'T342 00R'
p1255
asV504-R
p1256
(lp1257
S'T504 00R'
p1258
asV121-R
p1259
(lp1260
S'T121 00R'
p1261
asVD18-R
p1262
(lp1263
S'T458 00R'
p1264
aS'T458 01R'
p1265
asVE16-R
p1266
(lp1267
S'T366 00R'
p1268
asVE16-I
p1269
(lp1270
S'T366 00I'
p1271
asV121-I
p1272
(lp1273
S'T121 00I'
p1274
asV504-I
p1275
(lp1276
S'T504 00I'
p1277
asV513-R
p1278
(lp1279
S'T513 00R'
p1280
asVE11-I
p1281
(lp1282
S'T361 00I'
p1283
asVL6-I
p1284
(lp1285
S'L6-I'
p1286
asVE11-R
p1287
(lp1288
S'T361 00R'
p1289
asVJ19-I
p1290
(lp1291
S'T539 00I'
p1292
asVB15-R
p1293
(lp1294
S'B15 00R'
p1295
asVH13-R
p1296
(lp1297
S'T343 00R'
p1298
aS'T343 01R'
p1299
asV213e-R
p1300
(lp1301
S'F53 E0 00R'
p1302
asVH13-I
p1303
(lp1304
S'T343 00I'
p1305
asV316e-R
p1306
(lp1307
S'T316 E0 00R'
p1308
asV213e-I
p1309
(lp1310
S'F53 E0 00I'
p1311
asVB15-I
p1312
(lp1313
S'B15 00I'
p1314
asV126-R
p1315
(lp1316
S'T126 00R'
p1317
asV385-R
p1318
(lp1319
S'T385 00R'
p1320
aS'T385 03R'
p1321
asV205e-R
p1322
(lp1323
S'T205 E0 00R'
p1324
asV406-R
p1325
(lp1326
S'T406 00R'
p1327
asV210-I
p1328
(lp1329
S'T210 00I'
p1330
asV501-R
p1331
(lp1332
S'T501 00R'
p1333
asV210-R
p1334
(lp1335
S'T210 00R'
p1336
asVE15c-R
p1337
(lp1338
S'T365 C0 00R'
p1339
asV205e-I
p1340
(lp1341
S'T205 E0 00I'
p1342
asV126-I
p1343
(lp1344
S'T126 00I'
p1345
aS'T126 01I'
p1346
asV508-R
p1347
(lp1348
S'T508 00R'
p1349
asV106-R
p1350
(lp1351
S'T106 00R'
p1352
asV108-R
p1353
(lp1354
S'T108 00R'
p1355
asV315e-I
p1356
(lp1357
S'T315 E0 00I'
p1358
aS'T315 E0 02I'
p1359
asVE12-I
p1360
(lp1361
S'T362 00I'
p1362
asV315e-R
p1363
(lp1364
S'T315 E0 02R'
p1365
asV108-I
p1366
(lp1367
S'T108 00I'
p1368
asV508-I
p1369
(lp1370
S'T508 00I'
p1371
aS'T508 01I'
p1372
asV312e-I
p1373
(lp1374
S'T312 E0 00I'
p1375
asV106-I
p1376
(lp1377
S'T106 00I'
p1378
aS'T106 01I'
p1379
asVB10-R
p1380
(lp1381
S'B10 00R'
p1382
asVC06-I
p1383
(lp1384
S'B56 00I'
p1385
asV102-R
p1386
(lp1387
S'T102 00R'
p1388
asVF12c-R
p1389
(lp1390
S'F12 C0 00R'
p1391
asV105-I
p1392
(lp1393
S'T105 00I'
p1394
asVC05-I
p1395
(lp1396
S'B55 00I'
p1397
asVF13c-R
p1398
(lp1399
S'F13 C0 00R'
p1400
asV516-I
p1401
(lp1402
S'T516 00I'
p1403
asVB12-R
p1404
(lp1405
S'B12 00R'
p1406
asVF13c-I
p1407
(lp1408
S'F13 C0 00I'
p1409
asVC05-R
p1410
(lp1411
S'B55 00R'
p1412
aS'B55 01R'
p1413
asVB12-I
p1414
(lp1415
S'B12 00I'
p1416
aS'B12 01I'
p1417
asV513-I
p1418
(lp1419
S'T513 00I'
p1420
aS'T513 01I'
p1421
asV102-I
p1422
(lp1423
S'T102 00I'
p1424
asVC06-R
p1425
(lp1426
S'B56 00R'
p1427
aS'B56 01R'
p1428
asVB10-I
p1429
(lp1430
S'B10 00I'
p1431
asV105-R
p1432
(lp1433
S'T105 00R'
p1434
asVF12c-I
p1435
(lp1436
S'F12 C0 00I'
p1437
asVC20-I
p1438
(lp1439
S'B70 00I'
p1440
asVH07-I
p1441
(lp1442
S'T337 00I'
p1443
aS'T337 01I'
p1444
asV410-R
p1445
(lp1446
S'T130 00R'
p1447
asV503-R
p1448
(lp1449
S'T503 00R'
p1450
asV410-I
p1451
(lp1452
S'T130 00I'
p1453
asV226-I
p1454
(lp1455
S'T226 00I'
p1456
asV101-I
p1457
(lp1458
S'T101 00I'
p1459
asV113c-I
p1460
(lp1461
S'T113 C1 00I'
p1462
asVC02-R
p1463
(lp1464
S'B52 00R'
p1465
asV418-R
p1466
(lp1467
S'T418 00R'
p1468
asV406-I
p1469
(lp1470
S'T406 00I'
p1471
asV101-R
p1472
(lp1473
S'T101 00R'
p1474
asV418-I
p1475
(lp1476
S'T418 00I'
p1477
asV502c-I
p1478
(lp1479
S'T502 C0 00I'
p1480
asVC01-R
p1481
(lp1482
S'B51 00R'
p1483
asV113c-R
p1484
(lp1485
S'T113 C1 00R'
p1486
asV125-I
p1487
(lp1488
S'T125 00I'
p1489
asV307e-I
p1490
(lp1491
S'T307 E0 00I'
p1492
asVG01c-R
p1493
(lp1494
S'T231 C0 00R'
p1495
asV546e-I
p1496
(lp1497
S'T546 E0 00I'
p1498
asVE17-R
p1499
(lp1500
S'T367 00R'
p1501
asVI09e-R
p1502
(lp1503
S'T379 E0 00R'
p1504
asVH07-R
p1505
(lp1506
S'T337 00R'
p1507
asV409-I
p1508
(lp1509
S'T409 00I'
p1510
asVI09e-I
p1511
(lp1512
S'T379 E0 00I'
p1513
asVE17-I
p1514
(lp1515
S'T367 00I'
p1516
asV314-I
p1517
(lp1518
S'T314 00I'
p1519
asV210v-I
p1520
(lp1521
S'T210 C2 00I'
p1522
asV125-R
p1523
(lp1524
S'T125 00R'
p1525
asVG01c-I
p1526
(lp1527
S'T231 C0 00I'
p1528
asV214-I
p1529
(lp1530
S'T214 00I'
p1531
asVG07-I
p1532
(lp1533
S'T237 00I'
p1534
asVG22-I
p1535
(lp1536
S'T252 00I'
p1537
asV113e-I
p1538
(lp1539
S'T113 E0 00I'
p1540
asVJ12-R
p1541
(lp1542
S'T532 00R'
p1543
asV516-R
p1544
(lp1545
S'T516 00R'
p1546
asVG08-R
p1547
(lp1548
S'T238 00R'
p1549
asVG08-I
p1550
(lp1551
S'T238 00I'
p1552
asVG07-R
p1553
(lp1554
S'T237 00R'
p1555
asVJ12-I
p1556
(lp1557
S'T532 00I'
p1558
asVG22-R
p1559
(lp1560
S'T252 00R'
p1561
asV301e-R
p1562
(lp1563
S'T301 E0 00R'
p1564
aS'T301 E0 01R'
p1565
asV208c-I
p1566
(lp1567
S'T208 C0 00I'
p1568
asV435-I
p1569
(lp1570
S'T435 00I'
p1571
asV314e-I
p1572
(lp1573
S'T314 E0 00I'
p1574
asVB17-R
p1575
(lp1576
S'B17 00R'
p1577
asVB14-R
p1578
(lp1579
S'B14 00R'
p1580
asV405c-R
p1581
(lp1582
S'T405 C0 00R'
p1583
asVB14-I
p1584
(lp1585
S'B14 00I'
p1586
asV435-R
p1587
(lp1588
S'T435 00R'
p1589
asV208c-R
p1590
(lp1591
S'T208 C0 00R'
p1592
asV301e-I
p1593
(lp1594
S'T301 E0 00I'
p1595
aS'T301 E0 01I'
p1596
asVB17-I
p1597
(lp1598
S'B17 00I'
p1599
asV314e-R
p1600
(lp1601
S'T314 E0 00R'
p1602
asVI08c-I
p1603
(lp1604
S'T378 C0 00I'
p1605
asVB19-I
p1606
(lp1607
S'B19 00I'
p1608
asVH12-I
p1609
(lp1610
S'T342 00I'
p1611
asV226-R
p1612
(lp1613
S'T226 00R'
p1614
asVB19-R
p1615
(lp1616
S'B19 00R'
p1617
asVF19-R
p1618
(lp1619
S'F19 00R'
p1620
asV329-I
p1621
(lp1622
S'T329 00I'
p1623
aS'T329 03I'
p1624
asVI04c-I
p1625
(lp1626
S'T374 C0 00I'
p1627
asVL6-R
p1628
(lp1629
S'L6-R'
p1630
asV419-I
p1631
(lp1632
S'T419 00I'
p1633
asVE18-I
p1634
(lp1635
S'T349 00I'
p1636
asVE10-R
p1637
(lp1638
S'T360 00R'
p1639
asV419-R
p1640
(lp1641
S'T419 00R'
p1642
asV209e-R
p1643
(lp1644
S'T209 E0 00R'
p1645
asVE18-R
p1646
(lp1647
S'T349 00R'
p1648
asV409-R
p1649
(lp1650
S'T409 00R'
p1651
asV329-R
p1652
(lp1653
S'T329 00R'
p1654
aS'T329 03R'
p1655
asVI03c-I
p1656
(lp1657
S'T373 C0 00I'
p1658
asVF19-I
p1659
(lp1660
S'F19 00I'
p1661
asV426-R
p1662
(lp1663
S'T426 00R'
p1664
asVI04c-R
p1665
(lp1666
S'T374 C0 00R'
p1667
asVD07-I
p1668
(lp1669
S'T447 00I'
p1670
asV104-I
p1671
(lp1672
S'T104 00I'
p1673
aS'T104 01I'
p1674
asVJ06-I
p1675
(lp1676
S'T526 00I'
p1677
asV107-I
p1678
(lp1679
S'T107 00I'
p1680
asVE13-I
p1681
(lp1682
S'T363 00I'
p1683
asV107-R
p1684
(lp1685
S'T107 00R'
p1686
asVE13-R
p1687
(lp1688
S'T363 00R'
p1689
aS'T363 01R'
p1690
asV104-R
p1691
(lp1692
S'T104 00R'
p1693
asVD07-R
p1694
(lp1695
S'T447 00R'
p1696
asV303e-I
p1697
(lp1698
S'T303 E0 00I'
p1699
asV407-R
p1700
(lp1701
S'T407 00R'
p1702
asV219e-I
p1703
(lp1704
S'T219 E0 00I'
p1705
asVJ11-I
p1706
(lp1707
S'T531 00I'
p1708
asVMT-R
p1709
(lp1710
S'MT-R'
p1711
asV101c-I
p1712
(lp1713
S'T101 C0 00I'
p1714
asVD08-R
p1715
(lp1716
S'T448 00R'
p1717
asV101c-R
p1718
(lp1719
S'T101 C0 00R'
p1720
asV405c-I
p1721
(lp1722
S'T405 C0 00I'
p1723
asVD08-I
p1724
(lp1725
S'T448 00I'
p1726
asVJ16-I
p1727
(lp1728
S'T536 00I'
p1729
asV303e-R
p1730
(lp1731
S'T303 E0 00R'
p1732
asVJ11-R
p1733
(lp1734
S'T531 00R'
p1735
asV219e-R
p1736
(lp1737
S'T219 E0 00R'
p1738
asVL1-R
p1739
(lp1740
S'L1-R'
p1741
asV411-I
p1742
(lp1743
S'T411 00I'
p1744
asVG04-R
p1745
(lp1746
S'T234 00R'
p1747
asV103-I
p1748
(lp1749
S'T103 00I'
p1750
asVG04-I
p1751
(lp1752
S'T234 00I'
p1753
asV411-R
p1754
(lp1755
S'T411 00R'
p1756
asVL1-I
p1757
(lp1758
S'L1-I'
p1759
asV103-R
p1760
(lp1761
S'T103 00R'
p1762
asVL2R-R
p1763
(lp1764
S'L2R-R'
p1765
asVE02-R
p1766
(lp1767
S'T352 00R'
p1768
asV325-R
p1769
(lp1770
S'T325 00R'
p1771
aS'T325 01R'
p1772
asVJ17-I
p1773
(lp1774
S'T537 00I'
p1775
asV302e-I
p1776
(lp1777
S'T302 E0 00I'
p1778
asV322-R
p1779
(lp1780
S'T322 00R'
p1781
asV322-I
p1782
(lp1783
S'T322 00I'
p1784
asV302e-R
p1785
(lp1786
S'T302 E0 00R'
p1787
asVE04-R
p1788
(lp1789
S'T354 00R'
p1790
asV430-R
p1791
(lp1792
S'T430 00R'
p1793
asVL2R-I
p1794
(lp1795
S'L2R-I'
p1796
asVJ17-R
p1797
(lp1798
S'T537 00R'
p1799
asV325-I
p1800
(lp1801
S'T325 00I'
p1802
asV321-R
p1803
(lp1804
S'T321 00R'
p1805
asVG05-I
p1806
(lp1807
S'T235 00I'
p1808
asV348-R
p1809
(lp1810
S'T348 00R'
p1811
asVG23-R
p1812
(lp1813
S'T253 00R'
p1814
asVH09-R
p1815
(lp1816
S'T339 00R'
p1817
asVI13-R
p1818
(lp1819
S'T383 00R'
p1820
asV321-I
p1821
(lp1822
S'T321 00I'
p1823
asV348-I
p1824
(lp1825
S'T348 00I'
p1826
asVG05-R
p1827
(lp1828
S'T235 00R'
p1829
asVB13-I
p1830
(lp1831
S'B13 00I'
p1832
asVI09-I
p1833
(lp1834
S'T379 00I'
p1835
asVI11-I
p1836
(lp1837
S'T381 00I'
p1838
asVI11-R
p1839
(lp1840
S'T381 00R'
p1841
asVI09-R
p1842
(lp1843
S'T379 00R'
p1844
asV301c-R
p1845
(lp1846
S'T301 C0 00R'
p1847
aS'T301 C0 01R'
p1848
asVB18-I
p1849
(lp1850
S'B18 00I'
p1851
asV228-R
p1852
(lp1853
S'T228 00R'
p1854
asV506e-R
p1855
(lp1856
S'T506 E0 00R'
p1857
asVB18-R
p1858
(lp1859
S'B18 00R'
p1860
asV228-I
p1861
(lp1862
S'T228 00I'
p1863
asVJ18-R
p1864
(lp1865
S'T538 00R'
p1866
asVF16-R
p1867
(lp1868
S'F16 00R'
p1869
asVB23-I
p1870
(lp1871
S'B23 00I'
p1872
asVJ14c-R
p1873
(lp1874
S'T534 C0 00R'
p1875
asVF18-R
p1876
(lp1877
S'F18 00R'
p1878
asVJ14c-I
p1879
(lp1880
S'T534 C0 00I'
p1881
asVF18-I
p1882
(lp1883
S'F18 00I'
p1884
asVJ18-I
p1885
(lp1886
S'T538 00I'
p1887
asVF16-I
p1888
(lp1889
S'F16 00I'
p1890
asV201-I
p1891
(lp1892
S'T201 00I'
p1893
asVF12-R
p1894
(lp1895
S'F12 00R'
p1896
asV221e-R
p1897
(lp1898
S'T221 E0 00R'
p1899
asVF15-I
p1900
(lp1901
S'F15 00I'
p1902
asVD01-I
p1903
(lp1904
S'T441 00I'
p1905
aS'T441 01I'
p1906
asV206-I
p1907
(lp1908
S'T206 00I'
p1909
asVD01-R
p1910
(lp1911
S'T441 00R'
p1912
asV206-R
p1913
(lp1914
S'T206 00R'
p1915
asVF12-I
p1916
(lp1917
S'F12 00I'
p1918
asV201-R
p1919
(lp1920
S'T201 00R'
p1921
asVF15-R
p1922
(lp1923
S'F15 00R'
p1924
asV221e-I
p1925
(lp1926
S'T221 E0 00I'
p1927
asVC18-R
p1928
(lp1929
S'B68 00R'
p1930
asVG09-I
p1931
(lp1932
S'T239 00I'
p1933
asVJ10-I
p1934
(lp1935
S'T530 00I'
p1936
asVI05-R
p1937
(lp1938
S'T375 00R'
p1939
asVI04e-I
p1940
(lp1941
S'T374 E0 00I'
p1942
asVI07-I
p1943
(lp1944
S'T377 00I'
p1945
asVI16-R
p1946
(lp1947
S'T386 00R'
p1948
asVD09-R
p1949
(lp1950
S'T449 00R'
p1951
aS'T449 01R'
p1952
asVB20-I
p1953
(lp1954
S'B20 00I'
p1955
asVI02-I
p1956
(lp1957
S'T372 00I'
p1958
asVD09-I
p1959
(lp1960
S'T449 00I'
p1961
asVI16-I
p1962
(lp1963
S'T386 00I'
p1964
asVJ10-R
p1965
(lp1966
S'T530 00R'
p1967
asVG09-R
p1968
(lp1969
S'T239 00R'
p1970
asVC18-I
p1971
(lp1972
S'B68 00I'
p1973
asVI05-I
p1974
(lp1975
S'T375 00I'
p1976
asVI01-R
p1977
(lp1978
S'T371 00R'
p1979
aS'T371 01R'
p1980
asVG02-I
p1981
(lp1982
S'T232 00I'
p1983
asVF11-I
p1984
(lp1985
S'F11 00I'
p1986
asV209-I
p1987
(lp1988
S'T209 00I'
p1989
asVG01-I
p1990
(lp1991
S'T231 00I'
p1992
asVJ15c-I
p1993
(lp1994
S'T535 C0 00I'
p1995
asVJ15c-R
p1996
(lp1997
S'T535 C0 00R'
p1998
asVG01-R
p1999
(lp2000
S'T231 00R'
p2001
asV209-R
p2002
(lp2003
S'T209 00R'
p2004
asVF11-R
p2005
(lp2006
S'F11 00R'
p2007
asVG02-R
p2008
(lp2009
S'T232 00R'
p2010
asV350c-I
p2011
(lp2012
S'T350 C0 00I'
p2013
asV511-R
p2014
(lp2015
S'T511 00R'
p2016
asV223-R
p2017
(lp2018
S'T223 00R'
p2019
asVH04-R
p2020
(lp2021
S'T334 00R'
p2022
asVH04-I
p2023
(lp2024
S'T334 00I'
p2025
asV511-I
p2026
(lp2027
S'T511 00I'
p2028
asV223-I
p2029
(lp2030
S'T223 00I'
p2031
asV227-R
p2032
(lp2033
S'T227 00R'
p2034
aS'T227 01R'
p2035
asV323-R
p2036
(lp2037
S'T323 00R'
p2038
asVH03-I
p2039
(lp2040
S'T333 00I'
p2041
asV115-R
p2042
(lp2043
S'T115 01R'
p2044
asV115-I
p2045
(lp2046
S'T115 00I'
p2047
asVH03-R
p2048
(lp2049
S'T333 00R'
p2050
asV503-I
p2051
(lp2052
S'T503 00I'
p2053
aS'T503 01I'
p2054
asV227-I
p2055
(lp2056
S'T227 00I'
p2057
asV323-I
p2058
(lp2059
S'T323 00I'
p2060
asVI10-R
p2061
(lp2062
S'T380 00R'
p2063
asVJ18c-I
p2064
(lp2065
S'T538 C0 00I'
p2066
asVI08-R
p2067
(lp2068
S'T378 00R'
p2069
asVD05-I
p2070
(lp2071
S'T445 00I'
p2072
asVE02-I
p2073
(lp2074
S'T352 00I'
p2075
asVI13-I
p2076
(lp2077
S'T383 00I'
p2078
asV506e-I
p2079
(lp2080
S'T506 E0 00I'
p2081
asVI10-I
p2082
(lp2083
S'T380 00I'
p2084
asVI07-R
p2085
(lp2086
S'T377 00R'
p2087
asVI08-I
p2088
(lp2089
S'T378 00I'
p2090
asV229-R
p2091
(lp2092
S'T229 00R'
p2093
asVE15c-I
p2094
(lp2095
S'T365 C0 00I'
p2096
asV224-I
p2097
(lp2098
S'T224 00I'
p2099
aS'T224 01I'
p2100
asV205-I
p2101
(lp2102
S'T205 00I'
p2103
asV513v-R
p2104
(lp2105
S'T513 C2 00R'
p2106
asVD02-R
p2107
(lp2108
S'T442 00R'
p2109
asVD02-I
p2110
(lp2111
S'T442 00I'
p2112
aS'T442 01I'
p2113
asV430-I
p2114
(lp2115
S'T430 00I'
p2116
asV224-R
p2117
(lp2118
S'T224 00R'
p2119
asV229-I
p2120
(lp2121
S'T229 00I'
p2122
asVJ07c-I
p2123
(lp2124
S'T527 C0 00I'
p2125
asV205-R
p2126
(lp2127
S'T205 00R'
p2128
as.