cigraph
Graph
p0
(I401
(lp1
(I0
I1
tp2
a(I1
I0
tp3
a(I2
I3
tp4
a(I3
I2
tp5
a(I1
I3
tp6
a(I4
I5
tp7
a(I5
I4
tp8
a(I3
I5
tp9
a(I6
I7
tp10
a(I7
I6
tp11
a(I5
I7
tp12
a(I8
I9
tp13
a(I9
I8
tp14
a(I7
I9
tp15
a(I10
I11
tp16
a(I11
I10
tp17
a(I9
I11
tp18
a(I12
I13
tp19
a(I13
I12
tp20
a(I11
I13
tp21
a(I14
I15
tp22
a(I15
I14
tp23
a(I13
I15
tp24
a(I16
I17
tp25
a(I17
I16
tp26
a(I15
I17
tp27
a(I18
I19
tp28
a(I19
I18
tp29
a(I17
I19
tp30
a(I20
I21
tp31
a(I21
I20
tp32
a(I19
I21
tp33
a(I22
I23
tp34
a(I23
I22
tp35
a(I21
I23
tp36
a(I24
I25
tp37
a(I25
I24
tp38
a(I23
I25
tp39
a(I26
I27
tp40
a(I27
I26
tp41
a(I25
I27
tp42
a(I28
I29
tp43
a(I29
I28
tp44
a(I27
I29
tp45
a(I30
I31
tp46
a(I31
I30
tp47
a(I29
I31
tp48
a(I32
I33
tp49
a(I33
I32
tp50
a(I31
I33
tp51
a(I34
I35
tp52
a(I35
I34
tp53
a(I33
I35
tp54
a(I36
I37
tp55
a(I37
I36
tp56
a(I35
I37
tp57
a(I38
I39
tp58
a(I39
I38
tp59
a(I37
I39
tp60
a(I40
I41
tp61
a(I41
I40
tp62
a(I39
I41
tp63
a(I42
I43
tp64
a(I43
I42
tp65
a(I41
I43
tp66
a(I44
I45
tp67
a(I45
I44
tp68
a(I43
I45
tp69
a(I46
I47
tp70
a(I47
I46
tp71
a(I45
I47
tp72
a(I48
I49
tp73
a(I49
I48
tp74
a(I47
I49
tp75
a(I50
I51
tp76
a(I51
I50
tp77
a(I49
I51
tp78
a(I52
I53
tp79
a(I53
I52
tp80
a(I51
I53
tp81
a(I52
I54
tp82
a(I54
I52
tp83
a(I50
I55
tp84
a(I55
I50
tp85
a(I54
I55
tp86
a(I48
I56
tp87
a(I56
I48
tp88
a(I55
I56
tp89
a(I46
I57
tp90
a(I57
I46
tp91
a(I56
I57
tp92
a(I44
I58
tp93
a(I58
I44
tp94
a(I57
I58
tp95
a(I42
I59
tp96
a(I59
I42
tp97
a(I58
I59
tp98
a(I40
I60
tp99
a(I60
I40
tp100
a(I59
I60
tp101
a(I38
I61
tp102
a(I61
I38
tp103
a(I60
I61
tp104
a(I36
I62
tp105
a(I62
I36
tp106
a(I61
I62
tp107
a(I34
I63
tp108
a(I63
I34
tp109
a(I62
I63
tp110
a(I32
I64
tp111
a(I64
I32
tp112
a(I63
I64
tp113
a(I30
I65
tp114
a(I65
I30
tp115
a(I64
I65
tp116
a(I28
I66
tp117
a(I66
I28
tp118
a(I65
I66
tp119
a(I26
I67
tp120
a(I67
I26
tp121
a(I66
I67
tp122
a(I24
I68
tp123
a(I68
I24
tp124
a(I67
I68
tp125
a(I22
I69
tp126
a(I69
I22
tp127
a(I68
I69
tp128
a(I20
I70
tp129
a(I70
I20
tp130
a(I69
I70
tp131
a(I18
I71
tp132
a(I71
I18
tp133
a(I70
I71
tp134
a(I16
I72
tp135
a(I72
I16
tp136
a(I71
I72
tp137
a(I14
I73
tp138
a(I73
I14
tp139
a(I72
I73
tp140
a(I12
I74
tp141
a(I74
I12
tp142
a(I73
I74
tp143
a(I10
I75
tp144
a(I75
I10
tp145
a(I74
I75
tp146
a(I8
I76
tp147
a(I76
I8
tp148
a(I75
I76
tp149
a(I6
I77
tp150
a(I77
I6
tp151
a(I76
I77
tp152
a(I4
I78
tp153
a(I78
I4
tp154
a(I77
I78
tp155
a(I2
I79
tp156
a(I79
I2
tp157
a(I78
I79
tp158
a(I0
I80
tp159
a(I80
I0
tp160
a(I79
I80
tp161
a(I81
I82
tp162
a(I82
I81
tp163
a(I83
I84
tp164
a(I84
I83
tp165
a(I82
I84
tp166
a(I85
I86
tp167
a(I86
I85
tp168
a(I84
I86
tp169
a(I87
I88
tp170
a(I88
I87
tp171
a(I86
I88
tp172
a(I89
I90
tp173
a(I90
I89
tp174
a(I88
I90
tp175
a(I91
I92
tp176
a(I92
I91
tp177
a(I90
I92
tp178
a(I93
I94
tp179
a(I94
I93
tp180
a(I92
I94
tp181
a(I20
I95
tp182
a(I95
I20
tp183
a(I94
I95
tp184
a(I96
I97
tp185
a(I97
I96
tp186
a(I95
I97
tp187
a(I98
I99
tp188
a(I99
I98
tp189
a(I97
I99
tp190
a(I100
I101
tp191
a(I101
I100
tp192
a(I99
I101
tp193
a(I102
I103
tp194
a(I103
I102
tp195
a(I101
I103
tp196
a(I104
I105
tp197
a(I105
I104
tp198
a(I103
I105
tp199
a(I106
I107
tp200
a(I107
I106
tp201
a(I105
I107
tp202
a(I108
I109
tp203
a(I109
I108
tp204
a(I107
I109
tp205
a(I108
I110
tp206
a(I110
I108
tp207
a(I106
I111
tp208
a(I111
I106
tp209
a(I110
I111
tp210
a(I104
I112
tp211
a(I112
I104
tp212
a(I111
I112
tp213
a(I102
I113
tp214
a(I113
I102
tp215
a(I112
I113
tp216
a(I100
I114
tp217
a(I114
I100
tp218
a(I113
I114
tp219
a(I98
I115
tp220
a(I115
I98
tp221
a(I114
I115
tp222
a(I96
I116
tp223
a(I116
I96
tp224
a(I115
I116
tp225
a(I20
I117
tp226
a(I117
I20
tp227
a(I116
I117
tp228
a(I93
I118
tp229
a(I118
I93
tp230
a(I117
I118
tp231
a(I91
I119
tp232
a(I119
I91
tp233
a(I118
I119
tp234
a(I89
I120
tp235
a(I120
I89
tp236
a(I119
I120
tp237
a(I87
I121
tp238
a(I121
I87
tp239
a(I120
I121
tp240
a(I85
I122
tp241
a(I122
I85
tp242
a(I121
I122
tp243
a(I83
I123
tp244
a(I123
I83
tp245
a(I122
I123
tp246
a(I81
I124
tp247
a(I124
I81
tp248
a(I123
I124
tp249
a(I81
I125
tp250
a(I125
I81
tp251
a(I83
I126
tp252
a(I126
I83
tp253
a(I125
I126
tp254
a(I127
I128
tp255
a(I128
I127
tp256
a(I126
I128
tp257
a(I129
I130
tp258
a(I130
I129
tp259
a(I128
I130
tp260
a(I91
I131
tp261
a(I131
I91
tp262
a(I130
I131
tp263
a(I93
I132
tp264
a(I132
I93
tp265
a(I131
I132
tp266
a(I20
I133
tp267
a(I133
I20
tp268
a(I132
I133
tp269
a(I134
I135
tp270
a(I135
I134
tp271
a(I133
I135
tp272
a(I136
I137
tp273
a(I137
I136
tp274
a(I135
I137
tp275
a(I98
I138
tp276
a(I138
I98
tp277
a(I137
I138
tp278
a(I139
I140
tp279
a(I140
I139
tp280
a(I138
I140
tp281
a(I141
I142
tp282
a(I142
I141
tp283
a(I140
I142
tp284
a(I106
I143
tp285
a(I143
I106
tp286
a(I142
I143
tp287
a(I144
I145
tp288
a(I145
I144
tp289
a(I143
I145
tp290
a(I108
I146
tp291
a(I146
I108
tp292
a(I145
I146
tp293
a(I108
I147
tp294
a(I147
I108
tp295
a(I144
I148
tp296
a(I148
I144
tp297
a(I147
I148
tp298
a(I106
I149
tp299
a(I149
I106
tp300
a(I148
I149
tp301
a(I141
I150
tp302
a(I150
I141
tp303
a(I149
I150
tp304
a(I139
I151
tp305
a(I151
I139
tp306
a(I150
I151
tp307
a(I98
I152
tp308
a(I152
I98
tp309
a(I151
I152
tp310
a(I136
I153
tp311
a(I153
I136
tp312
a(I152
I153
tp313
a(I134
I154
tp314
a(I154
I134
tp315
a(I153
I154
tp316
a(I20
I155
tp317
a(I155
I20
tp318
a(I154
I155
tp319
a(I93
I156
tp320
a(I156
I93
tp321
a(I155
I156
tp322
a(I91
I157
tp323
a(I157
I91
tp324
a(I156
I157
tp325
a(I129
I158
tp326
a(I158
I129
tp327
a(I157
I158
tp328
a(I127
I159
tp329
a(I159
I127
tp330
a(I158
I159
tp331
a(I83
I160
tp332
a(I160
I83
tp333
a(I159
I160
tp334
a(I81
I161
tp335
a(I161
I81
tp336
a(I160
I161
tp337
a(I40
I162
tp338
a(I162
I40
tp339
a(I163
I164
tp340
a(I164
I163
tp341
a(I162
I164
tp342
a(I165
I166
tp343
a(I166
I165
tp344
a(I164
I166
tp345
a(I167
I168
tp346
a(I168
I167
tp347
a(I166
I168
tp348
a(I169
I170
tp349
a(I170
I169
tp350
a(I168
I170
tp351
a(I171
I172
tp352
a(I172
I171
tp353
a(I170
I172
tp354
a(I173
I174
tp355
a(I174
I173
tp356
a(I172
I174
tp357
a(I175
I176
tp358
a(I176
I175
tp359
a(I174
I176
tp360
a(I177
I178
tp361
a(I178
I177
tp362
a(I176
I178
tp363
a(I179
I180
tp364
a(I180
I179
tp365
a(I178
I180
tp366
a(I181
I182
tp367
a(I182
I181
tp368
a(I180
I182
tp369
a(I183
I184
tp370
a(I184
I183
tp371
a(I182
I184
tp372
a(I185
I186
tp373
a(I186
I185
tp374
a(I184
I186
tp375
a(I187
I188
tp376
a(I188
I187
tp377
a(I186
I188
tp378
a(I189
I190
tp379
a(I190
I189
tp380
a(I188
I190
tp381
a(I191
I192
tp382
a(I192
I191
tp383
a(I190
I192
tp384
a(I191
I193
tp385
a(I193
I191
tp386
a(I189
I194
tp387
a(I194
I189
tp388
a(I193
I194
tp389
a(I187
I195
tp390
a(I195
I187
tp391
a(I194
I195
tp392
a(I185
I196
tp393
a(I196
I185
tp394
a(I195
I196
tp395
a(I183
I197
tp396
a(I197
I183
tp397
a(I196
I197
tp398
a(I181
I198
tp399
a(I198
I181
tp400
a(I197
I198
tp401
a(I179
I199
tp402
a(I199
I179
tp403
a(I198
I199
tp404
a(I177
I200
tp405
a(I200
I177
tp406
a(I199
I200
tp407
a(I175
I201
tp408
a(I201
I175
tp409
a(I200
I201
tp410
a(I173
I202
tp411
a(I202
I173
tp412
a(I201
I202
tp413
a(I171
I203
tp414
a(I203
I171
tp415
a(I202
I203
tp416
a(I169
I204
tp417
a(I204
I169
tp418
a(I203
I204
tp419
a(I167
I205
tp420
a(I205
I167
tp421
a(I204
I205
tp422
a(I165
I206
tp423
a(I206
I165
tp424
a(I205
I206
tp425
a(I163
I207
tp426
a(I207
I163
tp427
a(I206
I207
tp428
a(I40
I208
tp429
a(I208
I40
tp430
a(I207
I208
tp431
a(I40
I209
tp432
a(I209
I40
tp433
a(I165
I210
tp434
a(I210
I165
tp435
a(I209
I210
tp436
a(I211
I212
tp437
a(I212
I211
tp438
a(I210
I212
tp439
a(I169
I213
tp440
a(I213
I169
tp441
a(I212
I213
tp442
a(I214
I215
tp443
a(I215
I214
tp444
a(I213
I215
tp445
a(I216
I217
tp446
a(I217
I216
tp447
a(I215
I217
tp448
a(I218
I219
tp449
a(I219
I218
tp450
a(I217
I219
tp451
a(I175
I220
tp452
a(I220
I175
tp453
a(I219
I220
tp454
a(I177
I221
tp455
a(I221
I177
tp456
a(I220
I221
tp457
a(I179
I222
tp458
a(I222
I179
tp459
a(I221
I222
tp460
a(I223
I224
tp461
a(I224
I223
tp462
a(I222
I224
tp463
a(I225
I226
tp464
a(I226
I225
tp465
a(I224
I226
tp466
a(I185
I227
tp467
a(I227
I185
tp468
a(I226
I227
tp469
a(I187
I228
tp470
a(I228
I187
tp471
a(I227
I228
tp472
a(I229
I230
tp473
a(I230
I229
tp474
a(I228
I230
tp475
a(I191
I231
tp476
a(I231
I191
tp477
a(I230
I231
tp478
a(I191
I232
tp479
a(I232
I191
tp480
a(I229
I233
tp481
a(I233
I229
tp482
a(I232
I233
tp483
a(I187
I234
tp484
a(I234
I187
tp485
a(I233
I234
tp486
a(I185
I235
tp487
a(I235
I185
tp488
a(I234
I235
tp489
a(I225
I236
tp490
a(I236
I225
tp491
a(I235
I236
tp492
a(I223
I237
tp493
a(I237
I223
tp494
a(I236
I237
tp495
a(I179
I238
tp496
a(I238
I179
tp497
a(I237
I238
tp498
a(I177
I239
tp499
a(I239
I177
tp500
a(I238
I239
tp501
a(I175
I240
tp502
a(I240
I175
tp503
a(I239
I240
tp504
a(I218
I241
tp505
a(I241
I218
tp506
a(I240
I241
tp507
a(I216
I242
tp508
a(I242
I216
tp509
a(I241
I242
tp510
a(I214
I243
tp511
a(I243
I214
tp512
a(I242
I243
tp513
a(I169
I244
tp514
a(I244
I169
tp515
a(I243
I244
tp516
a(I211
I245
tp517
a(I245
I211
tp518
a(I244
I245
tp519
a(I165
I246
tp520
a(I246
I165
tp521
a(I245
I246
tp522
a(I40
I247
tp523
a(I247
I40
tp524
a(I246
I247
tp525
a(I177
I248
tp526
a(I248
I177
tp527
a(I249
I250
tp528
a(I250
I249
tp529
a(I248
I250
tp530
a(I251
I252
tp531
a(I252
I251
tp532
a(I250
I252
tp533
a(I253
I254
tp534
a(I254
I253
tp535
a(I252
I254
tp536
a(I255
I256
tp537
a(I256
I255
tp538
a(I254
I256
tp539
a(I108
I257
tp540
a(I257
I108
tp541
a(I256
I257
tp542
a(I108
I258
tp543
a(I258
I108
tp544
a(I255
I259
tp545
a(I259
I255
tp546
a(I258
I259
tp547
a(I253
I260
tp548
a(I260
I253
tp549
a(I259
I260
tp550
a(I251
I261
tp551
a(I261
I251
tp552
a(I260
I261
tp553
a(I249
I262
tp554
a(I262
I249
tp555
a(I261
I262
tp556
a(I177
I263
tp557
a(I263
I177
tp558
a(I262
I263
tp559
a(I264
I265
tp560
a(I265
I264
tp561
a(I266
I267
tp562
a(I267
I266
tp563
a(I265
I267
tp564
a(I268
I269
tp565
a(I269
I268
tp566
a(I267
I269
tp567
a(I270
I271
tp568
a(I271
I270
tp569
a(I269
I271
tp570
a(I272
I273
tp571
a(I273
I272
tp572
a(I271
I273
tp573
a(I0
I274
tp574
a(I274
I0
tp575
a(I273
I274
tp576
a(I275
I276
tp577
a(I276
I275
tp578
a(I274
I276
tp579
a(I277
I278
tp580
a(I278
I277
tp581
a(I276
I278
tp582
a(I279
I280
tp583
a(I280
I279
tp584
a(I278
I280
tp585
a(I93
I281
tp586
a(I281
I93
tp587
a(I280
I281
tp588
a(I282
I283
tp589
a(I283
I282
tp590
a(I281
I283
tp591
a(I284
I285
tp592
a(I285
I284
tp593
a(I283
I285
tp594
a(I30
I286
tp595
a(I286
I30
tp596
a(I285
I286
tp597
a(I287
I288
tp598
a(I288
I287
tp599
a(I286
I288
tp600
a(I289
I290
tp601
a(I290
I289
tp602
a(I288
I290
tp603
a(I291
I292
tp604
a(I292
I291
tp605
a(I290
I292
tp606
a(I293
I294
tp607
a(I294
I293
tp608
a(I292
I294
tp609
a(I295
I296
tp610
a(I296
I295
tp611
a(I294
I296
tp612
a(I297
I298
tp613
a(I298
I297
tp614
a(I296
I298
tp615
a(I299
I300
tp616
a(I300
I299
tp617
a(I298
I300
tp618
a(I179
I301
tp619
a(I301
I179
tp620
a(I300
I301
tp621
a(I179
I302
tp622
a(I302
I179
tp623
a(I299
I303
tp624
a(I303
I299
tp625
a(I302
I303
tp626
a(I297
I304
tp627
a(I304
I297
tp628
a(I303
I304
tp629
a(I295
I305
tp630
a(I305
I295
tp631
a(I304
I305
tp632
a(I293
I306
tp633
a(I306
I293
tp634
a(I305
I306
tp635
a(I291
I307
tp636
a(I307
I291
tp637
a(I306
I307
tp638
a(I289
I308
tp639
a(I308
I289
tp640
a(I307
I308
tp641
a(I287
I309
tp642
a(I309
I287
tp643
a(I308
I309
tp644
a(I30
I310
tp645
a(I310
I30
tp646
a(I309
I310
tp647
a(I284
I311
tp648
a(I311
I284
tp649
a(I310
I311
tp650
a(I282
I312
tp651
a(I312
I282
tp652
a(I311
I312
tp653
a(I93
I313
tp654
a(I313
I93
tp655
a(I312
I313
tp656
a(I279
I314
tp657
a(I314
I279
tp658
a(I313
I314
tp659
a(I277
I315
tp660
a(I315
I277
tp661
a(I314
I315
tp662
a(I275
I316
tp663
a(I316
I275
tp664
a(I315
I316
tp665
a(I0
I317
tp666
a(I317
I0
tp667
a(I316
I317
tp668
a(I272
I318
tp669
a(I318
I272
tp670
a(I317
I318
tp671
a(I270
I319
tp672
a(I319
I270
tp673
a(I318
I319
tp674
a(I268
I320
tp675
a(I320
I268
tp676
a(I319
I320
tp677
a(I266
I321
tp678
a(I321
I266
tp679
a(I320
I321
tp680
a(I264
I322
tp681
a(I322
I264
tp682
a(I321
I322
tp683
a(I264
I323
tp684
a(I323
I264
tp685
a(I324
I325
tp686
a(I325
I324
tp687
a(I323
I325
tp688
a(I326
I327
tp689
a(I327
I326
tp690
a(I325
I327
tp691
a(I270
I328
tp692
a(I328
I270
tp693
a(I327
I328
tp694
a(I329
I330
tp695
a(I330
I329
tp696
a(I328
I330
tp697
a(I272
I331
tp698
a(I331
I272
tp699
a(I330
I331
tp700
a(I0
I332
tp701
a(I332
I0
tp702
a(I331
I332
tp703
a(I333
I334
tp704
a(I334
I333
tp705
a(I332
I334
tp706
a(I335
I336
tp707
a(I336
I335
tp708
a(I334
I336
tp709
a(I93
I337
tp710
a(I337
I93
tp711
a(I336
I337
tp712
a(I282
I338
tp713
a(I338
I282
tp714
a(I337
I338
tp715
a(I284
I339
tp716
a(I339
I284
tp717
a(I338
I339
tp718
a(I30
I340
tp719
a(I340
I30
tp720
a(I339
I340
tp721
a(I341
I342
tp722
a(I342
I341
tp723
a(I340
I342
tp724
a(I289
I343
tp725
a(I343
I289
tp726
a(I342
I343
tp727
a(I291
I344
tp728
a(I344
I291
tp729
a(I343
I344
tp730
a(I345
I346
tp731
a(I346
I345
tp732
a(I344
I346
tp733
a(I347
I348
tp734
a(I348
I347
tp735
a(I346
I348
tp736
a(I349
I350
tp737
a(I350
I349
tp738
a(I348
I350
tp739
a(I299
I351
tp740
a(I351
I299
tp741
a(I350
I351
tp742
a(I179
I352
tp743
a(I352
I179
tp744
a(I351
I352
tp745
a(I179
I353
tp746
a(I353
I179
tp747
a(I299
I354
tp748
a(I354
I299
tp749
a(I353
I354
tp750
a(I349
I355
tp751
a(I355
I349
tp752
a(I354
I355
tp753
a(I347
I356
tp754
a(I356
I347
tp755
a(I355
I356
tp756
a(I345
I357
tp757
a(I357
I345
tp758
a(I356
I357
tp759
a(I291
I358
tp760
a(I358
I291
tp761
a(I357
I358
tp762
a(I289
I359
tp763
a(I359
I289
tp764
a(I358
I359
tp765
a(I341
I360
tp766
a(I360
I341
tp767
a(I359
I360
tp768
a(I30
I361
tp769
a(I361
I30
tp770
a(I360
I361
tp771
a(I284
I362
tp772
a(I362
I284
tp773
a(I361
I362
tp774
a(I282
I363
tp775
a(I363
I282
tp776
a(I362
I363
tp777
a(I93
I364
tp778
a(I364
I93
tp779
a(I363
I364
tp780
a(I335
I365
tp781
a(I365
I335
tp782
a(I364
I365
tp783
a(I333
I366
tp784
a(I366
I333
tp785
a(I365
I366
tp786
a(I0
I367
tp787
a(I367
I0
tp788
a(I366
I367
tp789
a(I272
I368
tp790
a(I368
I272
tp791
a(I367
I368
tp792
a(I329
I369
tp793
a(I369
I329
tp794
a(I368
I369
tp795
a(I270
I370
tp796
a(I370
I270
tp797
a(I369
I370
tp798
a(I326
I371
tp799
a(I371
I326
tp800
a(I370
I371
tp801
a(I324
I372
tp802
a(I372
I324
tp803
a(I371
I372
tp804
a(I264
I373
tp805
a(I373
I264
tp806
a(I372
I373
tp807
a(I374
I375
tp808
a(I375
I374
tp809
a(I376
I377
tp810
a(I377
I376
tp811
a(I375
I377
tp812
a(I378
I379
tp813
a(I379
I378
tp814
a(I377
I379
tp815
a(I98
I380
tp816
a(I380
I98
tp817
a(I379
I380
tp818
a(I381
I382
tp819
a(I382
I381
tp820
a(I380
I382
tp821
a(I291
I383
tp822
a(I383
I291
tp823
a(I382
I383
tp824
a(I384
I385
tp825
a(I385
I384
tp826
a(I383
I385
tp827
a(I386
I387
tp828
a(I387
I386
tp829
a(I385
I387
tp830
a(I388
I389
tp831
a(I389
I388
tp832
a(I387
I389
tp833
a(I38
I390
tp834
a(I390
I38
tp835
a(I389
I390
tp836
a(I38
I391
tp837
a(I391
I38
tp838
a(I388
I392
tp839
a(I392
I388
tp840
a(I391
I392
tp841
a(I386
I393
tp842
a(I393
I386
tp843
a(I392
I393
tp844
a(I384
I394
tp845
a(I394
I384
tp846
a(I393
I394
tp847
a(I291
I395
tp848
a(I395
I291
tp849
a(I394
I395
tp850
a(I381
I396
tp851
a(I396
I381
tp852
a(I395
I396
tp853
a(I98
I397
tp854
a(I397
I98
tp855
a(I396
I397
tp856
a(I378
I398
tp857
a(I398
I378
tp858
a(I397
I398
tp859
a(I376
I399
tp860
a(I399
I376
tp861
a(I398
I399
tp862
a(I374
I400
tp863
a(I400
I374
tp864
a(I399
I400
tp865
aI01
(dp866
(dp867
S'name2'
p868
(lp869
S'M-SP'
p870
aS'M-SP/L1-I'
p871
aS'M-NP'
p872
aS'M-NP/L1-I'
p873
aS'M-PJ'
p874
aS'M-PJ/L1-I'
p875
aS'M-LR'
p876
aS'M-LR/L1-I'
p877
aS'M-EC'
p878
aS'M-EC/L1-I'
p879
aS'M-AH'
p880
aS'M-AH/L1-I'
p881
aS'M-US'
p882
aS'M-US/L1-I'
p883
aS'M-EL'
p884
aS'M-EL/L1-I'
p885
aS'M-LA'
p886
aS'M-LA/L1-I'
p887
aS'M-RP'
p888
aS'M-RP/L1-I'
p889
aS'M-LH'
p890
aS'M-LH/L1-I'
p891
aS'M-LM'
p892
aS'M-LM/L1-I'
p893
aS'M-CH'
p894
aS'M-CH/L1-I'
p895
aS'M-SL'
p896
aS'M-SL/L1-I'
p897
aS'M-UC'
p898
aS'M-UC/L1-I'
p899
aS'M-BA'
p900
aS'M-BA/L1-I'
p901
aS'M-SA'
p902
aS'M-SA/L1-I'
p903
aS'M-MM'
p904
aS'M-MM/L1-I'
p905
aS'M-PV'
p906
aS'M-PV/L1-I'
p907
aS'M-LE'
p908
aS'M-LE/L1-I'
p909
aS'M-TB'
p910
aS'M-TB/L1-I'
p911
aS'M-GO'
p912
aS'M-GO/L1-I'
p913
aS'M-AL'
p914
aS'M-AL/L1-I'
p915
aS'M-EM'
p916
aS'M-EM/L1-I'
p917
aS'M-MQ'
p918
aS'M-MQ/L1-I'
p919
aS'M-HM'
p920
aS'M-HM/L1-I'
p921
aS'M-LD'
p922
aS'M-LD/L1-I'
p923
aS'M-LD/L1-R'
p924
aS'M-HM/L1-R'
p925
aS'M-MQ/L1-R'
p926
aS'M-EM/L1-R'
p927
aS'M-AL/L1-R'
p928
aS'M-GO/L1-R'
p929
aS'M-TB/L1-R'
p930
aS'M-LE/L1-R'
p931
aS'M-PV/L1-R'
p932
aS'M-MM/L1-R'
p933
aS'M-SA/L1-R'
p934
aS'M-BA/L1-R'
p935
aS'M-UC/L1-R'
p936
aS'M-SL/L1-R'
p937
aS'M-CH/L1-R'
p938
aS'M-LM/L1-R'
p939
aS'M-LH/L1-R'
p940
aS'M-RP/L1-R'
p941
aS'M-LA/L1-R'
p942
aS'M-EL/L1-R'
p943
aS'M-US/L1-R'
p944
aS'M-AH/L1-R'
p945
aS'M-EC/L1-R'
p946
aS'M-LR/L1-R'
p947
aS'M-PJ/L1-R'
p948
aS'M-NP/L1-R'
p949
aS'M-SP/L1-R'
p950
aS'M-AV'
p951
aS'M-AV/L2R-I'
p952
aS'M-ZA'
p953
aS'M-ZA/L2R-I'
p954
aS'M-DO'
p955
aS'M-DO/L2R-I'
p956
aS'M-CE'
p957
aS'M-CE/L2R-I'
p958
aS'M-PT'
p959
aS'M-PT/L2R-I'
p960
aS'M-CA'
p961
aS'M-CA/L2R-I'
p962
aS'M-AN'
p963
aS'M-AN/L2R-I'
p964
aS'M-LH/L2R-I'
p965
aS'M-PQ'
p966
aS'M-PQ/L2R-I'
p967
aS'M-FR'
p968
aS'M-FR/L2R-I'
p969
aS'M-LN'
p970
aS'M-LN/L2R-I'
p971
aS'M-LV'
p972
aS'M-LV/L2R-I'
p973
aS'M-CN'
p974
aS'M-CN/L2R-I'
p975
aS'M-LO'
p976
aS'M-LO/L2R-I'
p977
aS'M-LC'
p978
aS'M-LC/L2R-I'
p979
aS'M-LC/L2R-R'
p980
aS'M-LO/L2R-R'
p981
aS'M-CN/L2R-R'
p982
aS'M-LV/L2R-R'
p983
aS'M-LN/L2R-R'
p984
aS'M-FR/L2R-R'
p985
aS'M-PQ/L2R-R'
p986
aS'M-LH/L2R-R'
p987
aS'M-AN/L2R-R'
p988
aS'M-CA/L2R-R'
p989
aS'M-PT/L2R-R'
p990
aS'M-CE/L2R-R'
p991
aS'M-DO/L2R-R'
p992
aS'M-ZA/L2R-R'
p993
aS'M-AV/L2R-R'
p994
aS'M-AV/L2V-I'
p995
aS'M-ZA/L2V-I'
p996
aS'M-EI'
p997
aS'M-EI/L2V-I'
p998
aS'M-CB'
p999
aS'M-CB/L2V-I'
p1000
aS'M-CA/L2V-I'
p1001
aS'M-AN/L2V-I'
p1002
aS'M-LH/L2V-I'
p1003
aS'M-TO'
p1004
aS'M-TO/L2V-I'
p1005
aS'M-RO'
p1006
aS'M-RO/L2V-I'
p1007
aS'M-FR/L2V-I'
p1008
aS'M-SM'
p1009
aS'M-SM/L2V-I'
p1010
aS'M-DE'
p1011
aS'M-DE/L2V-I'
p1012
aS'M-LO/L2V-I'
p1013
aS'M-EP'
p1014
aS'M-EP/L2V-I'
p1015
aS'M-LC/L2V-I'
p1016
aS'M-LC/L2V-R'
p1017
aS'M-EP/L2V-R'
p1018
aS'M-LO/L2V-R'
p1019
aS'M-DE/L2V-R'
p1020
aS'M-SM/L2V-R'
p1021
aS'M-FR/L2V-R'
p1022
aS'M-RO/L2V-R'
p1023
aS'M-TO/L2V-R'
p1024
aS'M-LH/L2V-R'
p1025
aS'M-AN/L2V-R'
p1026
aS'M-CA/L2V-R'
p1027
aS'M-CB/L2V-R'
p1028
aS'M-EI/L2V-R'
p1029
aS'M-ZA/L2V-R'
p1030
aS'M-AV/L2V-R'
p1031
aS'M-TB/L4V-I'
p1032
aS'M-CO'
p1033
aS'M-CO/L4V-I'
p1034
aS'M-BI'
p1035
aS'M-BI/L4V-I'
p1036
aS'M-SB'
p1037
aS'M-SB/L4V-I'
p1038
aS'M-EG'
p1039
aS'M-EG/L4V-I'
p1040
aS'M-RG'
p1041
aS'M-RG/L4V-I'
p1042
aS'M-RQ'
p1043
aS'M-RQ/L4V-I'
p1044
aS'M-MC'
p1045
aS'M-MC/L4V-I'
p1046
aS'M-VM'
p1047
aS'M-VM/L4V-I'
p1048
aS'M-VA'
p1049
aS'M-VA/L4V-I'
p1050
aS'M-RM'
p1051
aS'M-RM/L4V-I'
p1052
aS'M-JE'
p1053
aS'M-JE/L4V-I'
p1054
aS'M-EA'
p1055
aS'M-EA/L4V-I'
p1056
aS'M-HS'
p1057
aS'M-HS/L4V-I'
p1058
aS'M-PI'
p1059
aS'M-PI/L4V-I'
p1060
aS'M-PP'
p1061
aS'M-PP/L4V-I'
p1062
aS'M-PP/L4V-R'
p1063
aS'M-PI/L4V-R'
p1064
aS'M-HS/L4V-R'
p1065
aS'M-EA/L4V-R'
p1066
aS'M-JE/L4V-R'
p1067
aS'M-RM/L4V-R'
p1068
aS'M-VA/L4V-R'
p1069
aS'M-VM/L4V-R'
p1070
aS'M-MC/L4V-R'
p1071
aS'M-RQ/L4V-R'
p1072
aS'M-RG/L4V-R'
p1073
aS'M-EG/L4V-R'
p1074
aS'M-SB/L4V-R'
p1075
aS'M-BI/L4V-R'
p1076
aS'M-CO/L4V-R'
p1077
aS'M-TB/L4V-R'
p1078
aS'M-TB/L4R-I'
p1079
aS'M-BI/L4R-I'
p1080
aS'M-GA'
p1081
aS'M-GA/L4R-I'
p1082
aS'M-EG/L4R-I'
p1083
aS'M-OR'
p1084
aS'M-OR/L4R-I'
p1085
aS'M-LP'
p1086
aS'M-LP/L4R-I'
p1087
aS'M-LT'
p1088
aS'M-LT/L4R-I'
p1089
aS'M-MC/L4R-I'
p1090
aS'M-VM/L4R-I'
p1091
aS'M-VA/L4R-I'
p1092
aS'M-TR'
p1093
aS'M-TR/L4R-I'
p1094
aS'M-LQ'
p1095
aS'M-LQ/L4R-I'
p1096
aS'M-EA/L4R-I'
p1097
aS'M-HS/L4R-I'
p1098
aS'M-ME'
p1099
aS'M-ME/L4R-I'
p1100
aS'M-PP/L4R-I'
p1101
aS'M-PP/L4R-R'
p1102
aS'M-ME/L4R-R'
p1103
aS'M-HS/L4R-R'
p1104
aS'M-EA/L4R-R'
p1105
aS'M-LQ/L4R-R'
p1106
aS'M-TR/L4R-R'
p1107
aS'M-VA/L4R-R'
p1108
aS'M-VM/L4R-R'
p1109
aS'M-MC/L4R-R'
p1110
aS'M-LT/L4R-R'
p1111
aS'M-LP/L4R-R'
p1112
aS'M-OR/L4R-R'
p1113
aS'M-EG/L4R-R'
p1114
aS'M-GA/L4R-R'
p1115
aS'M-BI/L4R-R'
p1116
aS'M-TB/L4R-R'
p1117
aS'M-VM/L4A-I'
p1118
aS'M-JU'
p1119
aS'M-JU/L4A-I'
p1120
aS'M-LG'
p1121
aS'M-LG/L4A-I'
p1122
aS'M-SR'
p1123
aS'M-SR/L4A-I'
p1124
aS'M-RN'
p1125
aS'M-RN/L4A-I'
p1126
aS'M-LC/L4A-I'
p1127
aS'M-LC/L4A-R'
p1128
aS'M-RN/L4A-R'
p1129
aS'M-SR/L4A-R'
p1130
aS'M-LG/L4A-R'
p1131
aS'M-JU/L4A-R'
p1132
aS'M-VM/L4A-R'
p1133
aS'M-PM'
p1134
aS'M-PM/L5V-I'
p1135
aS'M-DS'
p1136
aS'M-DS/L5V-I'
p1137
aS'M-PA'
p1138
aS'M-PA/L5V-I'
p1139
aS'M-LS'
p1140
aS'M-LS/L5V-I'
p1141
aS'M-PU'
p1142
aS'M-PU/L5V-I'
p1143
aS'M-SP/L5V-I'
p1144
aS'M-PR'
p1145
aS'M-PR/L5V-I'
p1146
aS'M-GL'
p1147
aS'M-GL/L5V-I'
p1148
aS'M-RC'
p1149
aS'M-RC/L5V-I'
p1150
aS'M-AN/L5V-I'
p1151
aS'M-PZ'
p1152
aS'M-PZ/L5V-I'
p1153
aS'M-BE'
p1154
aS'M-BE/L5V-I'
p1155
aS'M-BA/L5V-I'
p1156
aS'M-SI'
p1157
aS'M-SI/L5V-I'
p1158
aS'M-IR'
p1159
aS'M-IR/L5V-I'
p1160
aS'M-NB'
p1161
aS'M-NB/L5V-I'
p1162
aS'M-RA'
p1163
aS'M-RA/L5V-I'
p1164
aS'M-AG'
p1165
aS'M-AG/L5V-I'
p1166
aS'M-PE'
p1167
aS'M-PE/L5V-I'
p1168
aS'M-LF'
p1169
aS'M-LF/L5V-I'
p1170
aS'M-VA/L5V-I'
p1171
aS'M-VA/L5V-R'
p1172
aS'M-LF/L5V-R'
p1173
aS'M-PE/L5V-R'
p1174
aS'M-AG/L5V-R'
p1175
aS'M-RA/L5V-R'
p1176
aS'M-NB/L5V-R'
p1177
aS'M-IR/L5V-R'
p1178
aS'M-SI/L5V-R'
p1179
aS'M-BA/L5V-R'
p1180
aS'M-BE/L5V-R'
p1181
aS'M-PZ/L5V-R'
p1182
aS'M-AN/L5V-R'
p1183
aS'M-RC/L5V-R'
p1184
aS'M-GL/L5V-R'
p1185
aS'M-PR/L5V-R'
p1186
aS'M-SP/L5V-R'
p1187
aS'M-PU/L5V-R'
p1188
aS'M-LS/L5V-R'
p1189
aS'M-PA/L5V-R'
p1190
aS'M-DS/L5V-R'
p1191
aS'M-PM/L5V-R'
p1192
aS'M-PM/L5R-I'
p1193
aS'M-BU'
p1194
aS'M-BU/L5R-I'
p1195
aS'M-MT'
p1196
aS'M-MT/L5R-I'
p1197
aS'M-LS/L5R-I'
p1198
aS'M-BR'
p1199
aS'M-BR/L5R-I'
p1200
aS'M-PU/L5R-I'
p1201
aS'M-SP/L5R-I'
p1202
aS'M-BL'
p1203
aS'M-BL/L5R-I'
p1204
aS'M-QN'
p1205
aS'M-QN/L5R-I'
p1206
aS'M-AN/L5R-I'
p1207
aS'M-PZ/L5R-I'
p1208
aS'M-BE/L5R-I'
p1209
aS'M-BA/L5R-I'
p1210
aS'M-PB'
p1211
aS'M-PB/L5R-I'
p1212
aS'M-IR/L5R-I'
p1213
aS'M-NB/L5R-I'
p1214
aS'M-CV'
p1215
aS'M-CV/L5R-I'
p1216
aS'M-SJ'
p1217
aS'M-SJ/L5R-I'
p1218
aS'M-MA'
p1219
aS'M-MA/L5R-I'
p1220
aS'M-LF/L5R-I'
p1221
aS'M-VA/L5R-I'
p1222
aS'M-VA/L5R-R'
p1223
aS'M-LF/L5R-R'
p1224
aS'M-MA/L5R-R'
p1225
aS'M-SJ/L5R-R'
p1226
aS'M-CV/L5R-R'
p1227
aS'M-NB/L5R-R'
p1228
aS'M-IR/L5R-R'
p1229
aS'M-PB/L5R-R'
p1230
aS'M-BA/L5R-R'
p1231
aS'M-BE/L5R-R'
p1232
aS'M-PZ/L5R-R'
p1233
aS'M-AN/L5R-R'
p1234
aS'M-QN/L5R-R'
p1235
aS'M-BL/L5R-R'
p1236
aS'M-SP/L5R-R'
p1237
aS'M-PU/L5R-R'
p1238
aS'M-BR/L5R-R'
p1239
aS'M-LS/L5R-R'
p1240
aS'M-MT/L5R-R'
p1241
aS'M-BU/L5R-R'
p1242
aS'M-PM/L5R-R'
p1243
aS'M-CS'
p1244
aS'M-CS/L6-I'
p1245
aS'M-LL'
p1246
aS'M-LL/L6-I'
p1247
aS'M-PG'
p1248
aS'M-PG/L6-I'
p1249
aS'M-FR/L6-I'
p1250
aS'M-BB'
p1251
aS'M-BB/L6-I'
p1252
aS'M-NB/L6-I'
p1253
aS'M-EN'
p1254
aS'M-EN/L6-I'
p1255
aS'M-UN'
p1256
aS'M-UN/L6-I'
p1257
aS'M-IS'
p1258
aS'M-IS/L6-I'
p1259
aS'M-LE/L6-I'
p1260
aS'M-LE/L6-R'
p1261
aS'M-IS/L6-R'
p1262
aS'M-UN/L6-R'
p1263
aS'M-EN/L6-R'
p1264
aS'M-NB/L6-R'
p1265
aS'M-BB/L6-R'
p1266
aS'M-FR/L6-R'
p1267
aS'M-PG/L6-R'
p1268
aS'M-LL/L6-R'
p1269
aS'M-CS/L6-R'
p1270
asS'name'
p1271
(lp1272
S'11234'
p1273
aS'54918'
p1274
aS'11235'
p1275
aS'54919'
p1276
aS'11236'
p1277
aS'54920'
p1278
aS'11237'
p1279
aS'54921'
p1280
aS'11238'
p1281
aS'54922'
p1282
aS'11239'
p1283
aS'54923'
p1284
aS'11240'
p1285
aS'54924'
p1286
aS'11241'
p1287
aS'54925'
p1288
aS'11242'
p1289
aS'54926'
p1290
aS'11243'
p1291
aS'54927'
p1292
aS'11244'
p1293
aS'54928'
p1294
aS'11245'
p1295
aS'54929'
p1296
aS'11246'
p1297
aS'54930'
p1298
aS'11247'
p1299
aS'54931'
p1300
aS'11248'
p1301
aS'54932'
p1302
aS'11249'
p1303
aS'54933'
p1304
aS'11250'
p1305
aS'54934'
p1306
aS'11251'
p1307
aS'54935'
p1308
aS'11252'
p1309
aS'54936'
p1310
aS'11253'
p1311
aS'54937'
p1312
aS'11254'
p1313
aS'54938'
p1314
aS'11255'
p1315
aS'54939'
p1316
aS'11256'
p1317
aS'54940'
p1318
aS'11257'
p1319
aS'54941'
p1320
aS'11258'
p1321
aS'54942'
p1322
aS'11259'
p1323
aS'54943'
p1324
aS'11260'
p1325
aS'54944'
p1326
aS'54945'
p1327
aS'54946'
p1328
aS'54947'
p1329
aS'54948'
p1330
aS'54949'
p1331
aS'54950'
p1332
aS'54951'
p1333
aS'54952'
p1334
aS'54953'
p1335
aS'54954'
p1336
aS'54955'
p1337
aS'54956'
p1338
aS'54957'
p1339
aS'54958'
p1340
aS'54959'
p1341
aS'54960'
p1342
aS'54961'
p1343
aS'54962'
p1344
aS'54963'
p1345
aS'54964'
p1346
aS'54965'
p1347
aS'54966'
p1348
aS'54967'
p1349
aS'54968'
p1350
aS'54969'
p1351
aS'54970'
p1352
aS'54971'
p1353
aS'11261'
p1354
aS'54972'
p1355
aS'11262'
p1356
aS'54973'
p1357
aS'11263'
p1358
aS'54974'
p1359
aS'11264'
p1360
aS'54975'
p1361
aS'11265'
p1362
aS'54976'
p1363
aS'11266'
p1364
aS'54977'
p1365
aS'11267'
p1366
aS'54978'
p1367
aS'54979'
p1368
aS'11268'
p1369
aS'54980'
p1370
aS'11269'
p1371
aS'54981'
p1372
aS'11270'
p1373
aS'54982'
p1374
aS'11271'
p1375
aS'54983'
p1376
aS'11272'
p1377
aS'54984'
p1378
aS'11273'
p1379
aS'54985'
p1380
aS'11274'
p1381
aS'54986'
p1382
aS'54987'
p1383
aS'54988'
p1384
aS'54989'
p1385
aS'54990'
p1386
aS'54991'
p1387
aS'54992'
p1388
aS'54993'
p1389
aS'54994'
p1390
aS'54995'
p1391
aS'54996'
p1392
aS'54997'
p1393
aS'54998'
p1394
aS'54999'
p1395
aS'55000'
p1396
aS'55001'
p1397
aS'55002'
p1398
aS'55003'
p1399
aS'11275'
p1400
aS'55004'
p1401
aS'11276'
p1402
aS'55005'
p1403
aS'55006'
p1404
aS'55007'
p1405
aS'55008'
p1406
aS'11277'
p1407
aS'55009'
p1408
aS'11278'
p1409
aS'55010'
p1410
aS'55011'
p1411
aS'11279'
p1412
aS'55012'
p1413
aS'11280'
p1414
aS'55013'
p1415
aS'55014'
p1416
aS'11281'
p1417
aS'55015'
p1418
aS'55016'
p1419
aS'55017'
p1420
aS'55018'
p1421
aS'55019'
p1422
aS'55020'
p1423
aS'55021'
p1424
aS'55022'
p1425
aS'55023'
p1426
aS'55024'
p1427
aS'55025'
p1428
aS'55026'
p1429
aS'55027'
p1430
aS'55028'
p1431
aS'55029'
p1432
aS'55030'
p1433
aS'55031'
p1434
aS'55032'
p1435
aS'11282'
p1436
aS'55033'
p1437
aS'11283'
p1438
aS'55034'
p1439
aS'11284'
p1440
aS'55035'
p1441
aS'11285'
p1442
aS'55036'
p1443
aS'11286'
p1444
aS'55037'
p1445
aS'11287'
p1446
aS'55038'
p1447
aS'11288'
p1448
aS'55039'
p1449
aS'11289'
p1450
aS'55040'
p1451
aS'11290'
p1452
aS'55041'
p1453
aS'11291'
p1454
aS'55042'
p1455
aS'11292'
p1456
aS'55043'
p1457
aS'11293'
p1458
aS'55044'
p1459
aS'11294'
p1460
aS'55045'
p1461
aS'11295'
p1462
aS'55046'
p1463
aS'11296'
p1464
aS'55047'
p1465
aS'55048'
p1466
aS'55049'
p1467
aS'55050'
p1468
aS'55051'
p1469
aS'55052'
p1470
aS'55053'
p1471
aS'55054'
p1472
aS'55055'
p1473
aS'55056'
p1474
aS'55057'
p1475
aS'55058'
p1476
aS'55059'
p1477
aS'55060'
p1478
aS'55061'
p1479
aS'55062'
p1480
aS'55063'
p1481
aS'55064'
p1482
aS'55065'
p1483
aS'11297'
p1484
aS'55066'
p1485
aS'55067'
p1486
aS'11298'
p1487
aS'55068'
p1488
aS'11299'
p1489
aS'55069'
p1490
aS'11300'
p1491
aS'55070'
p1492
aS'55071'
p1493
aS'55072'
p1494
aS'55073'
p1495
aS'11301'
p1496
aS'55074'
p1497
aS'11302'
p1498
aS'55075'
p1499
aS'55076'
p1500
aS'55077'
p1501
aS'11303'
p1502
aS'55078'
p1503
aS'55079'
p1504
aS'55080'
p1505
aS'55081'
p1506
aS'55082'
p1507
aS'55083'
p1508
aS'55084'
p1509
aS'55085'
p1510
aS'55086'
p1511
aS'55087'
p1512
aS'55088'
p1513
aS'55089'
p1514
aS'55090'
p1515
aS'55091'
p1516
aS'55092'
p1517
aS'55093'
p1518
aS'55094'
p1519
aS'55095'
p1520
aS'55096'
p1521
aS'11304'
p1522
aS'55097'
p1523
aS'11305'
p1524
aS'55098'
p1525
aS'11306'
p1526
aS'55099'
p1527
aS'11307'
p1528
aS'55100'
p1529
aS'55101'
p1530
aS'55102'
p1531
aS'55103'
p1532
aS'55104'
p1533
aS'55105'
p1534
aS'55106'
p1535
aS'55107'
p1536
aS'11308'
p1537
aS'55108'
p1538
aS'11309'
p1539
aS'55109'
p1540
aS'11310'
p1541
aS'55110'
p1542
aS'11311'
p1543
aS'55111'
p1544
aS'11312'
p1545
aS'55112'
p1546
aS'55113'
p1547
aS'11313'
p1548
aS'55114'
p1549
aS'11314'
p1550
aS'55115'
p1551
aS'11315'
p1552
aS'55116'
p1553
aS'55117'
p1554
aS'11316'
p1555
aS'55118'
p1556
aS'11317'
p1557
aS'55119'
p1558
aS'55120'
p1559
aS'11318'
p1560
aS'55121'
p1561
aS'11319'
p1562
aS'55122'
p1563
aS'11320'
p1564
aS'55123'
p1565
aS'11321'
p1566
aS'55124'
p1567
aS'11322'
p1568
aS'55125'
p1569
aS'11323'
p1570
aS'55126'
p1571
aS'11324'
p1572
aS'55127'
p1573
aS'55128'
p1574
aS'55129'
p1575
aS'55130'
p1576
aS'55131'
p1577
aS'55132'
p1578
aS'55133'
p1579
aS'55134'
p1580
aS'55135'
p1581
aS'55136'
p1582
aS'55137'
p1583
aS'55138'
p1584
aS'55139'
p1585
aS'55140'
p1586
aS'55141'
p1587
aS'55142'
p1588
aS'55143'
p1589
aS'55144'
p1590
aS'55145'
p1591
aS'55146'
p1592
aS'55147'
p1593
aS'55148'
p1594
aS'55149'
p1595
aS'55150'
p1596
aS'11325'
p1597
aS'55151'
p1598
aS'11326'
p1599
aS'55152'
p1600
aS'55153'
p1601
aS'11327'
p1602
aS'55154'
p1603
aS'55155'
p1604
aS'55156'
p1605
aS'11328'
p1606
aS'55157'
p1607
aS'11329'
p1608
aS'55158'
p1609
aS'55159'
p1610
aS'55160'
p1611
aS'55161'
p1612
aS'55162'
p1613
aS'11330'
p1614
aS'55163'
p1615
aS'55164'
p1616
aS'55165'
p1617
aS'11331'
p1618
aS'55166'
p1619
aS'11332'
p1620
aS'55167'
p1621
aS'11333'
p1622
aS'55168'
p1623
aS'55169'
p1624
aS'55170'
p1625
aS'55171'
p1626
aS'55172'
p1627
aS'55173'
p1628
aS'55174'
p1629
aS'55175'
p1630
aS'55176'
p1631
aS'55177'
p1632
aS'55178'
p1633
aS'55179'
p1634
aS'55180'
p1635
aS'55181'
p1636
aS'55182'
p1637
aS'55183'
p1638
aS'55184'
p1639
aS'55185'
p1640
aS'55186'
p1641
aS'55187'
p1642
aS'55188'
p1643
aS'55189'
p1644
aS'55190'
p1645
aS'55191'
p1646
aS'11334'
p1647
aS'55192'
p1648
aS'11335'
p1649
aS'55193'
p1650
aS'11336'
p1651
aS'55194'
p1652
aS'55195'
p1653
aS'11337'
p1654
aS'55196'
p1655
aS'55197'
p1656
aS'11338'
p1657
aS'55198'
p1658
aS'11339'
p1659
aS'55199'
p1660
aS'11340'
p1661
aS'55200'
p1662
aS'55201'
p1663
aS'55202'
p1664
aS'55203'
p1665
aS'55204'
p1666
aS'55205'
p1667
aS'55206'
p1668
aS'55207'
p1669
aS'55208'
p1670
aS'55209'
p1671
aS'55210'
p1672
aS'55211'
p1673
asS'tipo'
p1674
(lp1675
S'paradero'
p1676
aS'servicio'
p1677
ag1676
ag1677
ag1676
ag1677
ag1676
ag1677
ag1676
ag1677
ag1676
ag1677
ag1676
ag1677
ag1676
ag1677
ag1676
ag1677
ag1676
ag1677
ag1676
ag1677
ag1676
ag1677
ag1676
ag1677
ag1676
ag1677
ag1676
ag1677
ag1676
ag1677
ag1676
ag1677
ag1676
ag1677
ag1676
ag1677
ag1676
ag1677
ag1676
ag1677
ag1676
ag1677
ag1676
ag1677
ag1676
ag1677
ag1676
ag1677
ag1676
ag1677
ag1676
ag1677
ag1677
ag1677
ag1677
ag1677
ag1677
ag1677
ag1677
ag1677
ag1677
ag1677
ag1677
ag1677
ag1677
ag1677
ag1677
ag1677
ag1677
ag1677
ag1677
ag1677
ag1677
ag1677
ag1677
ag1677
ag1677
ag1677
ag1677
ag1676
ag1677
ag1676
ag1677
ag1676
ag1677
ag1676
ag1677
ag1676
ag1677
ag1676
ag1677
ag1676
ag1677
ag1677
ag1676
ag1677
ag1676
ag1677
ag1676
ag1677
ag1676
ag1677
ag1676
ag1677
ag1676
ag1677
ag1676
ag1677
ag1677
ag1677
ag1677
ag1677
ag1677
ag1677
ag1677
ag1677
ag1677
ag1677
ag1677
ag1677
ag1677
ag1677
ag1677
ag1677
ag1677
ag1676
ag1677
ag1676
ag1677
ag1677
ag1677
ag1677
ag1676
ag1677
ag1676
ag1677
ag1677
ag1676
ag1677
ag1676
ag1677
ag1677
ag1676
ag1677
ag1677
ag1677
ag1677
ag1677
ag1677
ag1677
ag1677
ag1677
ag1677
ag1677
ag1677
ag1677
ag1677
ag1677
ag1677
ag1677
ag1677
ag1676
ag1677
ag1676
ag1677
ag1676
ag1677
ag1676
ag1677
ag1676
ag1677
ag1676
ag1677
ag1676
ag1677
ag1676
ag1677
ag1676
ag1677
ag1676
ag1677
ag1676
ag1677
ag1676
ag1677
ag1676
ag1677
ag1676
ag1677
ag1676
ag1677
ag1677
ag1677
ag1677
ag1677
ag1677
ag1677
ag1677
ag1677
ag1677
ag1677
ag1677
ag1677
ag1677
ag1677
ag1677
ag1677
ag1677
ag1677
ag1676
ag1677
ag1677
ag1676
ag1677
ag1676
ag1677
ag1676
ag1677
ag1677
ag1677
ag1677
ag1676
ag1677
ag1676
ag1677
ag1677
ag1677
ag1676
ag1677
ag1677
ag1677
ag1677
ag1677
ag1677
ag1677
ag1677
ag1677
ag1677
ag1677
ag1677
ag1677
ag1677
ag1677
ag1677
ag1677
ag1677
ag1677
ag1676
ag1677
ag1676
ag1677
ag1676
ag1677
ag1676
ag1677
ag1677
ag1677
ag1677
ag1677
ag1677
ag1677
ag1677
ag1676
ag1677
ag1676
ag1677
ag1676
ag1677
ag1676
ag1677
ag1676
ag1677
ag1677
ag1676
ag1677
ag1676
ag1677
ag1676
ag1677
ag1677
ag1676
ag1677
ag1676
ag1677
ag1677
ag1676
ag1677
ag1676
ag1677
ag1676
ag1677
ag1676
ag1677
ag1676
ag1677
ag1676
ag1677
ag1676
ag1677
ag1677
ag1677
ag1677
ag1677
ag1677
ag1677
ag1677
ag1677
ag1677
ag1677
ag1677
ag1677
ag1677
ag1677
ag1677
ag1677
ag1677
ag1677
ag1677
ag1677
ag1677
ag1677
ag1677
ag1676
ag1677
ag1676
ag1677
ag1677
ag1676
ag1677
ag1677
ag1677
ag1676
ag1677
ag1676
ag1677
ag1677
ag1677
ag1677
ag1677
ag1676
ag1677
ag1677
ag1677
ag1676
ag1677
ag1676
ag1677
ag1676
ag1677
ag1677
ag1677
ag1677
ag1677
ag1677
ag1677
ag1677
ag1677
ag1677
ag1677
ag1677
ag1677
ag1677
ag1677
ag1677
ag1677
ag1677
ag1677
ag1677
ag1677
ag1677
ag1677
ag1677
ag1676
ag1677
ag1676
ag1677
ag1676
ag1677
ag1677
ag1676
ag1677
ag1677
ag1676
ag1677
ag1676
ag1677
ag1676
ag1677
ag1677
ag1677
ag1677
ag1677
ag1677
ag1677
ag1677
ag1677
ag1677
ag1677
ag1677
as(dp1678
S'peso'
p1679
(lp1680
F2.300000000153333
aF0.0
aF2.300000000153333
aF0.0
aF1.433333333
aF2.300000000153333
aF0.0
aF1.9
aF2.300000000153333
aF0.0
aF1.566666667
aF2.300000000153333
aF0.0
aF1.366666667
aF2.300000000153333
aF0.0
aF1.4
aF2.300000000153333
aF0.0
aF1.333333333
aF2.300000000153333
aF0.0
aF1.5
aF2.300000000153333
aF0.0
aF1.266666667
aF2.300000000153333
aF0.0
aF1.533333333
aF2.300000000153333
aF0.0
aF1.566666667
aF2.300000000153333
aF0.0
aF1.383333333
aF2.300000000153333
aF0.0
aF1.283333333
aF2.300000000153333
aF0.0
aF1.316666667
aF2.300000000153333
aF0.0
aF1.416666667
aF2.300000000153333
aF0.0
aF1.6
aF2.300000000153333
aF0.0
aF1.716666667
aF2.300000000153333
aF0.0
aF1.533333333
aF2.300000000153333
aF0.0
aF1.483333333
aF2.300000000153333
aF0.0
aF1.466666667
aF2.300000000153333
aF0.0
aF1.733333333
aF2.300000000153333
aF0.0
aF1.416666667
aF2.300000000153333
aF0.0
aF1.433333333
aF2.300000000153333
aF0.0
aF1.666666667
aF2.300000000153333
aF0.0
aF2.266666667
aF2.300000000153333
aF0.0
aF1.933333333
aF2.300000000153333
aF0.0
aF2.066666667
aF2.7166666667345836
aF0.0
aF2.7166666667345836
aF0.0
aF1.733333333
aF2.7166666667345836
aF0.0
aF2.133333333
aF2.7166666667345836
aF0.0
aF1.933333333
aF2.7166666667345836
aF0.0
aF1.316666667
aF2.7166666667345836
aF0.0
aF1.316666667
aF2.7166666667345836
aF0.0
aF1.466666667
aF2.7166666667345836
aF0.0
aF1.516666667
aF2.7166666667345836
aF0.0
aF1.433333333
aF2.7166666667345836
aF0.0
aF1.433333333
aF2.7166666667345836
aF0.0
aF1.6
aF2.7166666667345836
aF0.0
aF1.75
aF2.7166666667345836
aF0.0
aF1.35
aF2.7166666667345836
aF0.0
aF1.483333333
aF2.7166666667345836
aF0.0
aF1.366666667
aF2.7166666667345836
aF0.0
aF1.316666667
aF2.7166666667345836
aF0.0
aF1.55
aF2.7166666667345836
aF0.0
aF1.3
aF2.7166666667345836
aF0.0
aF1.4
aF2.7166666667345836
aF0.0
aF1.35
aF2.7166666667345836
aF0.0
aF1.45
aF2.7166666667345836
aF0.0
aF1.366666667
aF2.7166666667345836
aF0.0
aF1.5
aF2.7166666667345836
aF0.0
aF1.616666667
aF2.7166666667345836
aF0.0
aF1.716666667
aF2.7166666667345836
aF0.0
aF2.133333333
aF2.7166666667345836
aF0.0
aF1.666666667
aF3.5166666675751386
aF0.0
aF3.5166666675751386
aF0.0
aF2.05
aF3.5166666675751386
aF0.0
aF1.2
aF3.5166666675751386
aF0.0
aF2.466666667
aF3.5166666675751386
aF0.0
aF2.583333333
aF3.5166666675751386
aF0.0
aF1.433333333
aF3.5166666675751386
aF0.0
aF2.366666667
aF3.5166666675751386
aF0.0
aF1.783333333
aF3.5166666675751386
aF0.0
aF2.616666667
aF3.5166666675751386
aF0.0
aF3.4
aF3.5166666675751386
aF0.0
aF1.383333333
aF3.5166666675751386
aF0.0
aF2.533333333
aF3.5166666675751386
aF0.0
aF2.316666667
aF3.5166666675751386
aF0.0
aF1.683333333
aF3.5166666675751386
aF0.0
aF3.616666667
aF3.5999999992799996
aF0.0
aF3.5999999992799996
aF0.0
aF3.333333333
aF3.5999999992799996
aF0.0
aF1.45
aF3.5999999992799996
aF0.0
aF2.266666667
aF3.5999999992799996
aF0.0
aF2.55
aF3.5999999992799996
aF0.0
aF1.3
aF3.5999999992799996
aF0.0
aF3.2
aF3.5999999992799996
aF0.0
aF3.2
aF3.5999999992799996
aF0.0
aF1.533333333
aF3.5999999992799996
aF0.0
aF2.166666667
aF3.5999999992799996
aF0.0
aF1.316666667
aF3.5999999992799996
aF0.0
aF2.5
aF3.5999999992799996
aF0.0
aF2.233333333
aF3.5999999992799996
aF0.0
aF1.283333333
aF3.5999999992799996
aF0.0
aF2.85
aF3.5166666675751386
aF0.0
aF3.5166666675751386
aF0.0
aF1.9
aF3.5166666675751386
aF0.0
aF2.366666667
aF3.5166666675751386
aF0.0
aF3.05
aF3.5166666675751386
aF0.0
aF2.383333333
aF3.5166666675751386
aF0.0
aF2.366666667
aF3.5166666675751386
aF0.0
aF1.783333333
aF3.5166666675751386
aF0.0
aF1.516666667
aF3.5166666675751386
aF0.0
aF2.816666667
aF3.5166666675751386
aF0.0
aF1.766666667
aF3.5166666675751386
aF0.0
aF2.35
aF3.5166666675751386
aF0.0
aF2.283333333
aF3.5166666675751386
aF0.0
aF2.45
aF3.5166666675751386
aF0.0
aF1.616666667
aF3.5166666675751386
aF0.0
aF2.316666667
aF3.5999999992799996
aF0.0
aF3.5999999992799996
aF0.0
aF1.85
aF3.5999999992799996
aF0.0
aF1.75
aF3.5999999992799996
aF0.0
aF2.466666667
aF3.5999999992799996
aF0.0
aF2.383333333
aF3.5999999992799996
aF0.0
aF2.25
aF3.5999999992799996
aF0.0
aF1.85
aF3.5999999992799996
aF0.0
aF2.933333333
aF3.5999999992799996
aF0.0
aF1.733333333
aF3.5999999992799996
aF0.0
aF1.616666667
aF3.5999999992799996
aF0.0
aF2.166666667
aF3.5999999992799996
aF0.0
aF2.55
aF3.5999999992799996
aF0.0
aF2.616666667
aF3.5999999992799996
aF0.0
aF2.116666667
aF3.5999999992799996
aF0.0
aF2.033333333
aF3.0
aF0.0
aF3.0
aF0.0
aF1.966666667
aF3.0
aF0.0
aF1.533333333
aF3.0
aF0.0
aF3.116666667
aF3.0
aF0.0
aF1.566666667
aF3.0
aF0.0
aF2.966666667
aF3.0
aF0.0
aF3.133333333
aF3.0
aF0.0
aF3.233333333
aF3.0
aF0.0
aF2.05
aF3.0
aF0.0
aF1.583333333
aF3.0
aF0.0
aF2.3
aF3.0
aF0.0
aF3.083333333
aF3.0
aF0.0
aF2.65
aF3.0
aF0.0
aF1.65
aF3.0
aF0.0
aF2.2
aF3.0
aF0.0
aF3.8
aF2.6166666661796762
aF0.0
aF2.6166666661796762
aF0.0
aF3.1
aF2.6166666661796762
aF0.0
aF2.033333333
aF2.6166666661796762
aF0.0
aF1.483333333
aF2.6166666661796762
aF0.0
aF2.85
aF2.6166666661796762
aF0.0
aF3.05
aF2.6166666661796762
aF0.0
aF1.916666667
aF2.6166666661796762
aF0.0
aF1.566666667
aF2.6166666661796762
aF0.0
aF2.35
aF2.6166666661796762
aF0.0
aF3.366666667
aF2.6166666661796762
aF0.0
aF3.0
aF2.6166666661796762
aF0.0
aF2.816666667
aF2.6166666661796762
aF0.0
aF1.616666667
aF2.6166666661796762
aF0.0
aF3.216666667
aF2.6166666661796762
aF0.0
aF1.65
aF2.6166666661796762
aF0.0
aF2.816666667
aF3.0
aF0.0
aF3.0
aF0.0
aF3.1
aF3.0
aF0.0
aF2.4
aF3.0
aF0.0
aF2.483333333
aF3.0
aF0.0
aF1.783333333
aF3.0
aF0.0
aF2.85
aF3.0
aF0.0
aF3.066666667
aF3.0
aF0.0
aF2.016666667
aF3.0
aF0.0
aF2.05
aF3.0
aF0.0
aF1.566666667
aF3.0
aF0.0
aF3.416666667
aF3.0
aF0.0
aF2.666666667
aF3.0
aF0.0
aF1.716666667
aF3.0
aF0.0
aF1.666666667
aF3.0
aF0.0
aF3.566666667
aF3.0
aF0.0
aF2.133333333
aF2.6166666661796762
aF0.0
aF2.6166666661796762
aF0.0
aF1.566666667
aF2.6166666661796762
aF0.0
aF3.483333333
aF2.6166666661796762
aF0.0
aF1.483333333
aF2.6166666661796762
aF0.0
aF1.616666667
aF2.6166666661796762
aF0.0
aF2.716666667
aF2.6166666661796762
aF0.0
aF3.45
aF2.6166666661796762
aF0.0
aF1.6
aF2.6166666661796762
aF0.0
aF2.35
aF2.6166666661796762
aF0.0
aF1.766666667
aF2.6166666661796762
aF0.0
aF3.2
aF2.6166666661796762
aF0.0
aF2.983333333
aF2.6166666661796762
aF0.0
aF1.95
aF2.6166666661796762
aF0.0
aF2.466666667
aF2.6166666661796762
aF0.0
aF2.483333333
aF2.6166666661796762
aF0.0
aF3.7
aF4.283333333690278
aF0.0
aF4.283333333690278
aF0.0
aF2.15
aF4.283333333690278
aF0.0
aF2.116666667
aF4.283333333690278
aF0.0
aF2.533333333
aF4.283333333690278
aF0.0
aF1.566666667
aF4.283333333690278
aF0.0
aF3.05
aF4.283333333690278
aF0.0
aF4.283333333690278
aF0.0
aF2.55
aF4.283333333690278
aF0.0
aF1.733333333
aF4.283333333690278
aF0.0
aF2.35
aF4.283333333690278
aF0.0
aF2.1
aF4.283333333690278
aF0.0
aF2.683333333
aF2.6500000004637503
aF0.0
aF2.6500000004637503
aF0.0
aF3.1
aF2.6500000004637503
aF0.0
aF2.883333333
aF2.6500000004637503
aF0.0
aF2.683333333
aF2.6500000004637503
aF0.0
aF3.283333333
aF2.6500000004637503
aF0.0
aF2.233333333
aF2.6500000004637503
aF0.0
aF1.25
aF2.6500000004637503
aF0.0
aF3.383333333
aF2.6500000004637503
aF0.0
aF3.583333333
aF2.6500000004637503
aF0.0
aF1.733333333
aF2.6500000004637503
aF0.0
aF1.616666667
aF2.6500000004637503
aF0.0
aF1.233333333
aF2.6500000004637503
aF0.0
aF2.333333333
aF2.6500000004637503
aF0.0
aF1.933333333
aF2.6500000004637503
aF0.0
aF1.45
aF2.6500000004637503
aF0.0
aF2.166666667
aF2.6500000004637503
aF0.0
aF1.733333333
aF2.6500000004637503
aF0.0
aF2.583333333
aF2.6500000004637503
aF0.0
aF2.833333333
aF2.6500000004637503
aF0.0
aF2.65
aF2.6500000004637503
aF0.0
aF1.833333333
aF2.5999999996533334
aF0.0
aF2.5999999996533334
aF0.0
aF1.533333333
aF2.5999999996533334
aF0.0
aF2.666666667
aF2.5999999996533334
aF0.0
aF2.683333333
aF2.5999999996533334
aF0.0
aF2.65
aF2.5999999996533334
aF0.0
aF1.766666667
aF2.5999999996533334
aF0.0
aF2.1
aF2.5999999996533334
aF0.0
aF1.45
aF2.5999999996533334
aF0.0
aF2.2
aF2.5999999996533334
aF0.0
aF1.916666667
aF2.5999999996533334
aF0.0
aF1.466666667
aF2.5999999996533334
aF0.0
aF1.833333333
aF2.5999999996533334
aF0.0
aF1.683333333
aF2.5999999996533334
aF0.0
aF3.65
aF2.5999999996533334
aF0.0
aF3.05
aF2.5999999996533334
aF0.0
aF1.266666667
aF2.5999999996533334
aF0.0
aF2.45
aF2.5999999996533334
aF0.0
aF3.083333333
aF2.5999999996533334
aF0.0
aF2.516666667
aF2.5999999996533334
aF0.0
aF2.716666667
aF2.5999999996533334
aF0.0
aF3.416666667
aF2.6500000004637503
aF0.0
aF2.6500000004637503
aF0.0
aF1.866666667
aF2.6500000004637503
aF0.0
aF2.933333333
aF2.6500000004637503
aF0.0
aF3.833333333
aF2.6500000004637503
aF0.0
aF1.766666667
aF2.6500000004637503
aF0.0
aF1.983333333
aF2.6500000004637503
aF0.0
aF2.233333333
aF2.6500000004637503
aF0.0
aF2.55
aF2.6500000004637503
aF0.0
aF3.5
aF2.6500000004637503
aF0.0
aF3.216666667
aF2.6500000004637503
aF0.0
aF1.7
aF2.6500000004637503
aF0.0
aF1.216666667
aF2.6500000004637503
aF0.0
aF2.283333333
aF2.6500000004637503
aF0.0
aF1.216666667
aF2.6500000004637503
aF0.0
aF2.166666667
aF2.6500000004637503
aF0.0
aF2.133333333
aF2.6500000004637503
aF0.0
aF2.866666667
aF2.6500000004637503
aF0.0
aF2.45
aF2.6500000004637503
aF0.0
aF2.666666667
aF2.6500000004637503
aF0.0
aF1.6
aF2.6500000004637503
aF0.0
aF1.833333333
aF2.5999999996533334
aF0.0
aF2.5999999996533334
aF0.0
aF1.533333333
aF2.5999999996533334
aF0.0
aF1.65
aF2.5999999996533334
aF0.0
aF2.566666667
aF2.5999999996533334
aF0.0
aF2.3
aF2.5999999996533334
aF0.0
aF2.966666667
aF2.5999999996533334
aF0.0
aF2.333333333
aF2.5999999996533334
aF0.0
aF2.05
aF2.5999999996533334
aF0.0
aF1.716666667
aF2.5999999996533334
aF0.0
aF1.666666667
aF2.5999999996533334
aF0.0
aF1.3
aF2.5999999996533334
aF0.0
aF1.783333333
aF2.5999999996533334
aF0.0
aF3.133333333
aF2.5999999996533334
aF0.0
aF3.233333333
aF2.5999999996533334
aF0.0
aF2.4
aF2.5999999996533334
aF0.0
aF2.45
aF2.5999999996533334
aF0.0
aF1.716666667
aF2.5999999996533334
aF0.0
aF1.633333333
aF2.5999999996533334
aF0.0
aF3.716666667
aF2.5999999996533334
aF0.0
aF2.8
aF2.5999999996533334
aF0.0
aF2.283333333
aF4.283333333690278
aF0.0
aF4.283333333690278
aF0.0
aF2.316666667
aF4.283333333690278
aF0.0
aF2.0
aF4.283333333690278
aF0.0
aF2.283333333
aF4.283333333690278
aF0.0
aF1.183333333
aF4.283333333690278
aF0.0
aF2.666666667
aF4.283333333690278
aF0.0
aF2.516666667
aF4.283333333690278
aF0.0
aF1.533333333
aF4.283333333690278
aF0.0
aF2.283333333
aF4.283333333690278
aF0.0
aF2.8
aF4.283333333690278
aF0.0
aF4.283333333690278
aF0.0
aF2.8
aF4.283333333690278
aF0.0
aF2.2
aF4.283333333690278
aF0.0
aF1.483333333
aF4.283333333690278
aF0.0
aF2.433333333
aF4.283333333690278
aF0.0
aF2.633333333
aF4.283333333690278
aF0.0
aF1.216666667
aF4.283333333690278
aF0.0
aF2.233333333
aF4.283333333690278
aF0.0
aF1.983333333
aF4.283333333690278
aF0.0
aF2.283333333
asS'tpo_viaje'
p1681
(lp1682
I0
aI0
aI0
aI0
aF1.433333333
aI0
aI0
aF1.9
aI0
aI0
aF1.566666667
aI0
aI0
aF1.366666667
aI0
aI0
aF1.4
aI0
aI0
aF1.333333333
aI0
aI0
aF1.5
aI0
aI0
aF1.266666667
aI0
aI0
aF1.533333333
aI0
aI0
aF1.566666667
aI0
aI0
aF1.383333333
aI0
aI0
aF1.283333333
aI0
aI0
aF1.316666667
aI0
aI0
aF1.416666667
aI0
aI0
aF1.6
aI0
aI0
aF1.716666667
aI0
aI0
aF1.533333333
aI0
aI0
aF1.483333333
aI0
aI0
aF1.466666667
aI0
aI0
aF1.733333333
aI0
aI0
aF1.416666667
aI0
aI0
aF1.433333333
aI0
aI0
aF1.666666667
aI0
aI0
aF2.266666667
aI0
aI0
aF1.933333333
aI0
aI0
aF2.066666667
aI0
aI0
aI0
aI0
aF1.733333333
aI0
aI0
aF2.133333333
aI0
aI0
aF1.933333333
aI0
aI0
aF1.316666667
aI0
aI0
aF1.316666667
aI0
aI0
aF1.466666667
aI0
aI0
aF1.516666667
aI0
aI0
aF1.433333333
aI0
aI0
aF1.433333333
aI0
aI0
aF1.6
aI0
aI0
aF1.75
aI0
aI0
aF1.35
aI0
aI0
aF1.483333333
aI0
aI0
aF1.366666667
aI0
aI0
aF1.316666667
aI0
aI0
aF1.55
aI0
aI0
aF1.3
aI0
aI0
aF1.4
aI0
aI0
aF1.35
aI0
aI0
aF1.45
aI0
aI0
aF1.366666667
aI0
aI0
aF1.5
aI0
aI0
aF1.616666667
aI0
aI0
aF1.716666667
aI0
aI0
aF2.133333333
aI0
aI0
aF1.666666667
aI0
aI0
aI0
aI0
aF2.05
aI0
aI0
aF1.2
aI0
aI0
aF2.466666667
aI0
aI0
aF2.583333333
aI0
aI0
aF1.433333333
aI0
aI0
aF2.366666667
aI0
aI0
aF1.783333333
aI0
aI0
aF2.616666667
aI0
aI0
aF3.4
aI0
aI0
aF1.383333333
aI0
aI0
aF2.533333333
aI0
aI0
aF2.316666667
aI0
aI0
aF1.683333333
aI0
aI0
aF3.616666667
aI0
aI0
aI0
aI0
aF3.333333333
aI0
aI0
aF1.45
aI0
aI0
aF2.266666667
aI0
aI0
aF2.55
aI0
aI0
aF1.3
aI0
aI0
aF3.2
aI0
aI0
aF3.2
aI0
aI0
aF1.533333333
aI0
aI0
aF2.166666667
aI0
aI0
aF1.316666667
aI0
aI0
aF2.5
aI0
aI0
aF2.233333333
aI0
aI0
aF1.283333333
aI0
aI0
aF2.85
aI0
aI0
aI0
aI0
aF1.9
aI0
aI0
aF2.366666667
aI0
aI0
aF3.05
aI0
aI0
aF2.383333333
aI0
aI0
aF2.366666667
aI0
aI0
aF1.783333333
aI0
aI0
aF1.516666667
aI0
aI0
aF2.816666667
aI0
aI0
aF1.766666667
aI0
aI0
aF2.35
aI0
aI0
aF2.283333333
aI0
aI0
aF2.45
aI0
aI0
aF1.616666667
aI0
aI0
aF2.316666667
aI0
aI0
aI0
aI0
aF1.85
aI0
aI0
aF1.75
aI0
aI0
aF2.466666667
aI0
aI0
aF2.383333333
aI0
aI0
aF2.25
aI0
aI0
aF1.85
aI0
aI0
aF2.933333333
aI0
aI0
aF1.733333333
aI0
aI0
aF1.616666667
aI0
aI0
aF2.166666667
aI0
aI0
aF2.55
aI0
aI0
aF2.616666667
aI0
aI0
aF2.116666667
aI0
aI0
aF2.033333333
aI0
aI0
aI0
aI0
aF1.966666667
aI0
aI0
aF1.533333333
aI0
aI0
aF3.116666667
aI0
aI0
aF1.566666667
aI0
aI0
aF2.966666667
aI0
aI0
aF3.133333333
aI0
aI0
aF3.233333333
aI0
aI0
aF2.05
aI0
aI0
aF1.583333333
aI0
aI0
aF2.3
aI0
aI0
aF3.083333333
aI0
aI0
aF2.65
aI0
aI0
aF1.65
aI0
aI0
aF2.2
aI0
aI0
aF3.8
aI0
aI0
aI0
aI0
aF3.1
aI0
aI0
aF2.033333333
aI0
aI0
aF1.483333333
aI0
aI0
aF2.85
aI0
aI0
aF3.05
aI0
aI0
aF1.916666667
aI0
aI0
aF1.566666667
aI0
aI0
aF2.35
aI0
aI0
aF3.366666667
aI0
aI0
aI3
aI0
aI0
aF2.816666667
aI0
aI0
aF1.616666667
aI0
aI0
aF3.216666667
aI0
aI0
aF1.65
aI0
aI0
aF2.816666667
aI0
aI0
aI0
aI0
aF3.1
aI0
aI0
aF2.4
aI0
aI0
aF2.483333333
aI0
aI0
aF1.783333333
aI0
aI0
aF2.85
aI0
aI0
aF3.066666667
aI0
aI0
aF2.016666667
aI0
aI0
aF2.05
aI0
aI0
aF1.566666667
aI0
aI0
aF3.416666667
aI0
aI0
aF2.666666667
aI0
aI0
aF1.716666667
aI0
aI0
aF1.666666667
aI0
aI0
aF3.566666667
aI0
aI0
aF2.133333333
aI0
aI0
aI0
aI0
aF1.566666667
aI0
aI0
aF3.483333333
aI0
aI0
aF1.483333333
aI0
aI0
aF1.616666667
aI0
aI0
aF2.716666667
aI0
aI0
aF3.45
aI0
aI0
aF1.6
aI0
aI0
aF2.35
aI0
aI0
aF1.766666667
aI0
aI0
aF3.2
aI0
aI0
aF2.983333333
aI0
aI0
aF1.95
aI0
aI0
aF2.466666667
aI0
aI0
aF2.483333333
aI0
aI0
aF3.7
aI0
aI0
aI0
aI0
aF2.15
aI0
aI0
aF2.116666667
aI0
aI0
aF2.533333333
aI0
aI0
aF1.566666667
aI0
aI0
aF3.05
aI0
aI0
aI0
aI0
aF2.55
aI0
aI0
aF1.733333333
aI0
aI0
aF2.35
aI0
aI0
aF2.1
aI0
aI0
aF2.683333333
aI0
aI0
aI0
aI0
aF3.1
aI0
aI0
aF2.883333333
aI0
aI0
aF2.683333333
aI0
aI0
aF3.283333333
aI0
aI0
aF2.233333333
aI0
aI0
aF1.25
aI0
aI0
aF3.383333333
aI0
aI0
aF3.583333333
aI0
aI0
aF1.733333333
aI0
aI0
aF1.616666667
aI0
aI0
aF1.233333333
aI0
aI0
aF2.333333333
aI0
aI0
aF1.933333333
aI0
aI0
aF1.45
aI0
aI0
aF2.166666667
aI0
aI0
aF1.733333333
aI0
aI0
aF2.583333333
aI0
aI0
aF2.833333333
aI0
aI0
aF2.65
aI0
aI0
aF1.833333333
aI0
aI0
aI0
aI0
aF1.533333333
aI0
aI0
aF2.666666667
aI0
aI0
aF2.683333333
aI0
aI0
aF2.65
aI0
aI0
aF1.766666667
aI0
aI0
aF2.1
aI0
aI0
aF1.45
aI0
aI0
aF2.2
aI0
aI0
aF1.916666667
aI0
aI0
aF1.466666667
aI0
aI0
aF1.833333333
aI0
aI0
aF1.683333333
aI0
aI0
aF3.65
aI0
aI0
aF3.05
aI0
aI0
aF1.266666667
aI0
aI0
aF2.45
aI0
aI0
aF3.083333333
aI0
aI0
aF2.516666667
aI0
aI0
aF2.716666667
aI0
aI0
aF3.416666667
aI0
aI0
aI0
aI0
aF1.866666667
aI0
aI0
aF2.933333333
aI0
aI0
aF3.833333333
aI0
aI0
aF1.766666667
aI0
aI0
aF1.983333333
aI0
aI0
aF2.233333333
aI0
aI0
aF2.55
aI0
aI0
aF3.5
aI0
aI0
aF3.216666667
aI0
aI0
aF1.7
aI0
aI0
aF1.216666667
aI0
aI0
aF2.283333333
aI0
aI0
aF1.216666667
aI0
aI0
aF2.166666667
aI0
aI0
aF2.133333333
aI0
aI0
aF2.866666667
aI0
aI0
aF2.45
aI0
aI0
aF2.666666667
aI0
aI0
aF1.6
aI0
aI0
aF1.833333333
aI0
aI0
aI0
aI0
aF1.533333333
aI0
aI0
aF1.65
aI0
aI0
aF2.566666667
aI0
aI0
aF2.3
aI0
aI0
aF2.966666667
aI0
aI0
aF2.333333333
aI0
aI0
aF2.05
aI0
aI0
aF1.716666667
aI0
aI0
aF1.666666667
aI0
aI0
aF1.3
aI0
aI0
aF1.783333333
aI0
aI0
aF3.133333333
aI0
aI0
aF3.233333333
aI0
aI0
aF2.4
aI0
aI0
aF2.45
aI0
aI0
aF1.716666667
aI0
aI0
aF1.633333333
aI0
aI0
aF3.716666667
aI0
aI0
aF2.8
aI0
aI0
aF2.283333333
aI0
aI0
aI0
aI0
aF2.316666667
aI0
aI0
aI2
aI0
aI0
aF2.283333333
aI0
aI0
aF1.183333333
aI0
aI0
aF2.666666667
aI0
aI0
aF2.516666667
aI0
aI0
aF1.533333333
aI0
aI0
aF2.283333333
aI0
aI0
aF2.8
aI0
aI0
aI0
aI0
aF2.8
aI0
aI0
aF2.2
aI0
aI0
aF1.483333333
aI0
aI0
aF2.433333333
aI0
aI0
aF2.633333333
aI0
aI0
aF1.216666667
aI0
aI0
aF2.233333333
aI0
aI0
aF1.983333333
aI0
aI0
aF2.283333333
asS'frecuencia'
p1683
(lp1684
F0.4347826086666667
aFinf
aF0.4347826086666667
aFinf
aFinf
aF0.4347826086666667
aFinf
aFinf
aF0.4347826086666667
aFinf
aFinf
aF0.4347826086666667
aFinf
aFinf
aF0.4347826086666667
aFinf
aFinf
aF0.4347826086666667
aFinf
aFinf
aF0.4347826086666667
aFinf
aFinf
aF0.4347826086666667
aFinf
aFinf
aF0.4347826086666667
aFinf
aFinf
aF0.4347826086666667
aFinf
aFinf
aF0.4347826086666667
aFinf
aFinf
aF0.4347826086666667
aFinf
aFinf
aF0.4347826086666667
aFinf
aFinf
aF0.4347826086666667
aFinf
aFinf
aF0.4347826086666667
aFinf
aFinf
aF0.4347826086666667
aFinf
aFinf
aF0.4347826086666667
aFinf
aFinf
aF0.4347826086666667
aFinf
aFinf
aF0.4347826086666667
aFinf
aFinf
aF0.4347826086666667
aFinf
aFinf
aF0.4347826086666667
aFinf
aFinf
aF0.4347826086666667
aFinf
aFinf
aF0.4347826086666667
aFinf
aFinf
aF0.4347826086666667
aFinf
aFinf
aF0.4347826086666667
aFinf
aFinf
aF0.4347826086666667
aFinf
aFinf
aF0.36809815949999997
aFinf
aF0.36809815949999997
aFinf
aFinf
aF0.36809815949999997
aFinf
aFinf
aF0.36809815949999997
aFinf
aFinf
aF0.36809815949999997
aFinf
aFinf
aF0.36809815949999997
aFinf
aFinf
aF0.36809815949999997
aFinf
aFinf
aF0.36809815949999997
aFinf
aFinf
aF0.36809815949999997
aFinf
aFinf
aF0.36809815949999997
aFinf
aFinf
aF0.36809815949999997
aFinf
aFinf
aF0.36809815949999997
aFinf
aFinf
aF0.36809815949999997
aFinf
aFinf
aF0.36809815949999997
aFinf
aFinf
aF0.36809815949999997
aFinf
aFinf
aF0.36809815949999997
aFinf
aFinf
aF0.36809815949999997
aFinf
aFinf
aF0.36809815949999997
aFinf
aFinf
aF0.36809815949999997
aFinf
aFinf
aF0.36809815949999997
aFinf
aFinf
aF0.36809815949999997
aFinf
aFinf
aF0.36809815949999997
aFinf
aFinf
aF0.36809815949999997
aFinf
aFinf
aF0.36809815949999997
aFinf
aFinf
aF0.36809815949999997
aFinf
aFinf
aF0.36809815949999997
aFinf
aFinf
aF0.36809815949999997
aFinf
aFinf
aF0.2843601895
aFinf
aF0.2843601895
aFinf
aFinf
aF0.2843601895
aFinf
aFinf
aF0.2843601895
aFinf
aFinf
aF0.2843601895
aFinf
aFinf
aF0.2843601895
aFinf
aFinf
aF0.2843601895
aFinf
aFinf
aF0.2843601895
aFinf
aFinf
aF0.2843601895
aFinf
aFinf
aF0.2843601895
aFinf
aFinf
aF0.2843601895
aFinf
aFinf
aF0.2843601895
aFinf
aFinf
aF0.2843601895
aFinf
aFinf
aF0.2843601895
aFinf
aFinf
aF0.2843601895
aFinf
aFinf
aF0.27777777783333335
aFinf
aF0.27777777783333335
aFinf
aFinf
aF0.27777777783333335
aFinf
aFinf
aF0.27777777783333335
aFinf
aFinf
aF0.27777777783333335
aFinf
aFinf
aF0.27777777783333335
aFinf
aFinf
aF0.27777777783333335
aFinf
aFinf
aF0.27777777783333335
aFinf
aFinf
aF0.27777777783333335
aFinf
aFinf
aF0.27777777783333335
aFinf
aFinf
aF0.27777777783333335
aFinf
aFinf
aF0.27777777783333335
aFinf
aFinf
aF0.27777777783333335
aFinf
aFinf
aF0.27777777783333335
aFinf
aFinf
aF0.27777777783333335
aFinf
aFinf
aF0.2843601895
aFinf
aF0.2843601895
aFinf
aFinf
aF0.2843601895
aFinf
aFinf
aF0.2843601895
aFinf
aFinf
aF0.2843601895
aFinf
aFinf
aF0.2843601895
aFinf
aFinf
aF0.2843601895
aFinf
aFinf
aF0.2843601895
aFinf
aFinf
aF0.2843601895
aFinf
aFinf
aF0.2843601895
aFinf
aFinf
aF0.2843601895
aFinf
aFinf
aF0.2843601895
aFinf
aFinf
aF0.2843601895
aFinf
aFinf
aF0.2843601895
aFinf
aFinf
aF0.2843601895
aFinf
aFinf
aF0.27777777783333335
aFinf
aF0.27777777783333335
aFinf
aFinf
aF0.27777777783333335
aFinf
aFinf
aF0.27777777783333335
aFinf
aFinf
aF0.27777777783333335
aFinf
aFinf
aF0.27777777783333335
aFinf
aFinf
aF0.27777777783333335
aFinf
aFinf
aF0.27777777783333335
aFinf
aFinf
aF0.27777777783333335
aFinf
aFinf
aF0.27777777783333335
aFinf
aFinf
aF0.27777777783333335
aFinf
aFinf
aF0.27777777783333335
aFinf
aFinf
aF0.27777777783333335
aFinf
aFinf
aF0.27777777783333335
aFinf
aFinf
aF0.27777777783333335
aFinf
aFinf
aF0.3333333333333333
aFinf
aF0.3333333333333333
aFinf
aFinf
aF0.3333333333333333
aFinf
aFinf
aF0.3333333333333333
aFinf
aFinf
aF0.3333333333333333
aFinf
aFinf
aF0.3333333333333333
aFinf
aFinf
aF0.3333333333333333
aFinf
aFinf
aF0.3333333333333333
aFinf
aFinf
aF0.3333333333333333
aFinf
aFinf
aF0.3333333333333333
aFinf
aFinf
aF0.3333333333333333
aFinf
aFinf
aF0.3333333333333333
aFinf
aFinf
aF0.3333333333333333
aFinf
aFinf
aF0.3333333333333333
aFinf
aFinf
aF0.3333333333333333
aFinf
aFinf
aF0.3333333333333333
aFinf
aFinf
aF0.38216560516666664
aFinf
aF0.38216560516666664
aFinf
aFinf
aF0.38216560516666664
aFinf
aFinf
aF0.38216560516666664
aFinf
aFinf
aF0.38216560516666664
aFinf
aFinf
aF0.38216560516666664
aFinf
aFinf
aF0.38216560516666664
aFinf
aFinf
aF0.38216560516666664
aFinf
aFinf
aF0.38216560516666664
aFinf
aFinf
aF0.38216560516666664
aFinf
aFinf
aF0.38216560516666664
aFinf
aFinf
aF0.38216560516666664
aFinf
aFinf
aF0.38216560516666664
aFinf
aFinf
aF0.38216560516666664
aFinf
aFinf
aF0.38216560516666664
aFinf
aFinf
aF0.38216560516666664
aFinf
aFinf
aF0.3333333333333333
aFinf
aF0.3333333333333333
aFinf
aFinf
aF0.3333333333333333
aFinf
aFinf
aF0.3333333333333333
aFinf
aFinf
aF0.3333333333333333
aFinf
aFinf
aF0.3333333333333333
aFinf
aFinf
aF0.3333333333333333
aFinf
aFinf
aF0.3333333333333333
aFinf
aFinf
aF0.3333333333333333
aFinf
aFinf
aF0.3333333333333333
aFinf
aFinf
aF0.3333333333333333
aFinf
aFinf
aF0.3333333333333333
aFinf
aFinf
aF0.3333333333333333
aFinf
aFinf
aF0.3333333333333333
aFinf
aFinf
aF0.3333333333333333
aFinf
aFinf
aF0.3333333333333333
aFinf
aFinf
aF0.38216560516666664
aFinf
aF0.38216560516666664
aFinf
aFinf
aF0.38216560516666664
aFinf
aFinf
aF0.38216560516666664
aFinf
aFinf
aF0.38216560516666664
aFinf
aFinf
aF0.38216560516666664
aFinf
aFinf
aF0.38216560516666664
aFinf
aFinf
aF0.38216560516666664
aFinf
aFinf
aF0.38216560516666664
aFinf
aFinf
aF0.38216560516666664
aFinf
aFinf
aF0.38216560516666664
aFinf
aFinf
aF0.38216560516666664
aFinf
aFinf
aF0.38216560516666664
aFinf
aFinf
aF0.38216560516666664
aFinf
aFinf
aF0.38216560516666664
aFinf
aFinf
aF0.38216560516666664
aFinf
aFinf
aF0.233463035
aFinf
aF0.233463035
aFinf
aFinf
aF0.233463035
aFinf
aFinf
aF0.233463035
aFinf
aFinf
aF0.233463035
aFinf
aFinf
aF0.233463035
aFinf
aFinf
aF0.233463035
aFinf
aF0.233463035
aFinf
aFinf
aF0.233463035
aFinf
aFinf
aF0.233463035
aFinf
aFinf
aF0.233463035
aFinf
aFinf
aF0.233463035
aFinf
aFinf
aF0.3773584905
aFinf
aF0.3773584905
aFinf
aFinf
aF0.3773584905
aFinf
aFinf
aF0.3773584905
aFinf
aFinf
aF0.3773584905
aFinf
aFinf
aF0.3773584905
aFinf
aFinf
aF0.3773584905
aFinf
aFinf
aF0.3773584905
aFinf
aFinf
aF0.3773584905
aFinf
aFinf
aF0.3773584905
aFinf
aFinf
aF0.3773584905
aFinf
aFinf
aF0.3773584905
aFinf
aFinf
aF0.3773584905
aFinf
aFinf
aF0.3773584905
aFinf
aFinf
aF0.3773584905
aFinf
aFinf
aF0.3773584905
aFinf
aFinf
aF0.3773584905
aFinf
aFinf
aF0.3773584905
aFinf
aFinf
aF0.3773584905
aFinf
aFinf
aF0.3773584905
aFinf
aFinf
aF0.3773584905
aFinf
aFinf
aF0.38461538466666667
aFinf
aF0.38461538466666667
aFinf
aFinf
aF0.38461538466666667
aFinf
aFinf
aF0.38461538466666667
aFinf
aFinf
aF0.38461538466666667
aFinf
aFinf
aF0.38461538466666667
aFinf
aFinf
aF0.38461538466666667
aFinf
aFinf
aF0.38461538466666667
aFinf
aFinf
aF0.38461538466666667
aFinf
aFinf
aF0.38461538466666667
aFinf
aFinf
aF0.38461538466666667
aFinf
aFinf
aF0.38461538466666667
aFinf
aFinf
aF0.38461538466666667
aFinf
aFinf
aF0.38461538466666667
aFinf
aFinf
aF0.38461538466666667
aFinf
aFinf
aF0.38461538466666667
aFinf
aFinf
aF0.38461538466666667
aFinf
aFinf
aF0.38461538466666667
aFinf
aFinf
aF0.38461538466666667
aFinf
aFinf
aF0.38461538466666667
aFinf
aFinf
aF0.38461538466666667
aFinf
aFinf
aF0.3773584905
aFinf
aF0.3773584905
aFinf
aFinf
aF0.3773584905
aFinf
aFinf
aF0.3773584905
aFinf
aFinf
aF0.3773584905
aFinf
aFinf
aF0.3773584905
aFinf
aFinf
aF0.3773584905
aFinf
aFinf
aF0.3773584905
aFinf
aFinf
aF0.3773584905
aFinf
aFinf
aF0.3773584905
aFinf
aFinf
aF0.3773584905
aFinf
aFinf
aF0.3773584905
aFinf
aFinf
aF0.3773584905
aFinf
aFinf
aF0.3773584905
aFinf
aFinf
aF0.3773584905
aFinf
aFinf
aF0.3773584905
aFinf
aFinf
aF0.3773584905
aFinf
aFinf
aF0.3773584905
aFinf
aFinf
aF0.3773584905
aFinf
aFinf
aF0.3773584905
aFinf
aFinf
aF0.3773584905
aFinf
aFinf
aF0.38461538466666667
aFinf
aF0.38461538466666667
aFinf
aFinf
aF0.38461538466666667
aFinf
aFinf
aF0.38461538466666667
aFinf
aFinf
aF0.38461538466666667
aFinf
aFinf
aF0.38461538466666667
aFinf
aFinf
aF0.38461538466666667
aFinf
aFinf
aF0.38461538466666667
aFinf
aFinf
aF0.38461538466666667
aFinf
aFinf
aF0.38461538466666667
aFinf
aFinf
aF0.38461538466666667
aFinf
aFinf
aF0.38461538466666667
aFinf
aFinf
aF0.38461538466666667
aFinf
aFinf
aF0.38461538466666667
aFinf
aFinf
aF0.38461538466666667
aFinf
aFinf
aF0.38461538466666667
aFinf
aFinf
aF0.38461538466666667
aFinf
aFinf
aF0.38461538466666667
aFinf
aFinf
aF0.38461538466666667
aFinf
aFinf
aF0.38461538466666667
aFinf
aFinf
aF0.38461538466666667
aFinf
aFinf
aF0.233463035
aFinf
aF0.233463035
aFinf
aFinf
aF0.233463035
aFinf
aFinf
aF0.233463035
aFinf
aFinf
aF0.233463035
aFinf
aFinf
aF0.233463035
aFinf
aFinf
aF0.233463035
aFinf
aFinf
aF0.233463035
aFinf
aFinf
aF0.233463035
aFinf
aFinf
aF0.233463035
aFinf
aFinf
aF0.233463035
aFinf
aF0.233463035
aFinf
aFinf
aF0.233463035
aFinf
aFinf
aF0.233463035
aFinf
aFinf
aF0.233463035
aFinf
aFinf
aF0.233463035
aFinf
aFinf
aF0.233463035
aFinf
aFinf
aF0.233463035
aFinf
aFinf
aF0.233463035
aFinf
aFinf
aF0.233463035
aFinf
aFinf
astp1685
Rp1686
(dp1687
b.